(dp0
S'scenarios'
p1
(lp2
(lp3
(lp4
I29
aI47
aa(lp5
I15
aa(lp6
Vtired
p7
aVviolent
p8
aVinsane
p9
aaa(lp10
(lp11
I26
aI37
aa(lp12
I23
aa(lp13
Vexcited
p14
aVconfused
p15
aVsmooth
p16
aaa(lp17
(lp18
I2
aI10
aa(lp19
I12
aa(lp20
Vclean
p21
aVtalented
p22
aVinnocent
p23
aaa(lp24
(lp25
I37
aI28
aa(lp26
I14
aa(lp27
Vadorable
p28
aVchristian
p29
aVbroken
p30
aaa(lp31
(lp32
I37
aI48
aa(lp33
I32
aa(lp34
Vlonely
p35
aVbitter
p36
aVsuccessful
p37
aaa(lp38
(lp39
I1
aI27
aa(lp40
I10
aa(lp41
Vextreme
p42
aVsafe
p43
aVweird
p44
aaa(lp45
(lp46
I21
aI7
aa(lp47
I41
aa(lp48
Vcold
p49
aVclever
p50
aVcrazy
p51
aaa(lp52
(lp53
I48
aI47
aa(lp54
I37
aa(lp55
Vwicked
p56
aVstrong
p57
aVproud
p58
aaa(lp59
(lp60
I6
aI40
aa(lp61
I9
aa(lp62
Vfaithful
p63
aVdifficult
p64
aVdivine
p65
aaa(lp66
(lp67
I6
aI37
aa(lp68
I28
aa(lp69
g9
ag63
aVlazy
p70
aaa(lp71
(lp72
I47
aI37
aa(lp73
I19
aa(lp74
Vweak
p75
ag14
aVcreepy
p76
aaa(lp77
(lp78
I45
aI4
aa(lp79
I39
aa(lp80
Vevil
p81
aVhealthy
p82
ag58
aaa(lp83
(lp84
I35
aI7
aa(lp85
I43
aa(lp86
Vfat
p87
aVjealous
p88
aVdark
p89
aaa(lp90
(lp91
I37
aI45
aa(lp92
I19
aa(lp93
g82
ag35
ag76
aaa(lp94
(lp95
I13
aI41
aa(lp96
I46
aa(lp97
g28
aVbright
p98
ag44
aaa(lp99
(lp100
I19
aI48
aa(lp101
I9
aa(lp102
Vshy
p103
aVbusy
p104
aVgorgeous
p105
aaa(lp106
(lp107
I35
aI7
aa(lp108
I43
aa(lp109
Vloud
p110
ag89
ag103
aaa(lp111
(lp112
I7
aI48
aa(lp113
I9
aa(lp114
g70
ag56
ag82
aaa(lp115
(lp116
I7
aI39
aa(lp117
I42
aa(lp118
Vnasty
p119
ag57
aVugly
p120
aaa(lp121
(lp122
I35
aI13
aa(lp123
I6
aa(lp124
Vholy
p125
aVsexy
p126
aVfunny
p127
aaa(lp128
(lp129
I7
aI27
aa(lp130
I14
aa(lp131
g110
ag76
aVrough
p132
aaa(lp133
(lp134
I11
aI25
aa(lp135
I19
aa(lp136
g82
ag16
aVfancy
p137
aaa(lp138
(lp139
I11
aI6
aa(lp140
I15
aa(lp141
g125
ag29
aVdeadly
p142
aaa(lp143
(lp144
I15
aI28
aa(lp145
I12
aa(lp146
g9
ag35
ag44
aaa(lp147
(lp148
I42
aI37
aa(lp149
I7
aa(lp150
g104
ag57
ag120
aaa(lp151
(lp152
I22
aI38
aa(lp153
I4
aa(lp154
Vstunning
p155
ag58
aVyoung
p156
aaa(lp157
(lp158
I41
aI30
aa(lp159
I48
aa(lp160
Vdead
p161
ag119
ag104
aaa(lp162
(lp163
I7
aI19
aa(lp164
I38
aa(lp165
g81
ag161
aVbeautiful
p166
aaa(lp167
(lp168
I6
aI35
aa(lp169
I18
aa(lp170
Vexpensive
p171
ag42
aVdangerous
p172
aaas.