(dp0
S'scenarios'
p1
(lp2
(lp3
(lp4
I3
aI28
aa(lp5
I27
aa(lp6
Vcute
p7
aVadorable
p8
aVempty
p9
aaa(lp10
(lp11
I2
aI10
aa(lp12
I12
aa(lp13
Vclean
p14
aVtalented
p15
aVinnocent
p16
aaa(lp17
(lp18
I40
aI14
aa(lp19
I12
aa(lp20
Vangry
p21
aVdangerous
p22
aVfaithful
p23
aaa(lp24
(lp25
I32
aI27
aa(lp26
I7
aa(lp27
Vcomfortable
p28
aVclear
p29
aVstrong
p30
aaa(lp31
(lp32
I32
aI2
aa(lp33
I41
aa(lp34
Vextreme
p35
aVevil
p36
aVsafe
p37
aaa(lp38
(lp39
I37
aI48
aa(lp40
I32
aa(lp41
Vlonely
p42
aVbitter
p43
aVsuccessful
p44
aaa(lp45
(lp46
I1
aI27
aa(lp47
I10
aa(lp48
g35
ag37
aVweird
p49
aaa(lp50
(lp51
I6
aI37
aa(lp52
I28
aa(lp53
Vinsane
p54
ag23
aVlazy
p55
aaa(lp56
(lp57
I35
aI7
aa(lp58
I43
aa(lp59
Vfat
p60
aVjealous
p61
aVdark
p62
aaa(lp63
(lp64
I1
aI45
aa(lp65
I40
aa(lp66
Vdifficult
p67
aVclever
p68
ag49
aaa(lp69
(lp70
I37
aI45
aa(lp71
I19
aa(lp72
Vhealthy
p73
ag42
aVcreepy
p74
aaa(lp75
(lp76
I13
aI41
aa(lp77
I46
aa(lp78
g8
aVbright
p79
ag49
aaa(lp80
(lp81
I19
aI38
aa(lp82
I22
aa(lp83
Vhurt
p84
aVyoung
p85
aVstunning
p86
aaa(lp87
(lp88
I33
aI9
aa(lp89
I6
aa(lp90
Vdumb
p91
ag23
aVfunny
p92
aaa(lp93
(lp94
I18
aI7
aa(lp95
I26
aa(lp96
Vnasty
p97
ag62
ag74
aaa(lp98
(lp99
I11
aI25
aa(lp100
I19
aa(lp101
g73
aVsmooth
p102
aVfancy
p103
aaa(lp104
(lp105
I15
aI28
aa(lp106
I12
aa(lp107
g54
ag42
ag49
aaa(lp108
(lp109
I37
aI47
aa(lp110
I29
aa(lp111
Vdying
p112
aVviolent
p113
aVsleepy
p114
aaa(lp115
(lp116
I35
aI17
aa(lp117
I47
aa(lp118
g29
ag73
ag35
aaa(lp119
(lp120
I7
aI19
aa(lp121
I38
aa(lp122
g36
aVdead
p123
aVbeautiful
p124
aaa(lp125
(lp126
I0
aI7
aa(lp127
I25
aa(lp128
g60
ag92
aVsexy
p129
aaas.