(dp0
S'scenarios'
p1
(lp2
(lp3
(lp4
I27
aI3
aa(lp5
I28
aa(lp6
Vcute
p7
aVadorable
p8
aVempty
p9
aaa(lp10
(lp11
I12
aI2
aa(lp12
I10
aa(lp13
Vclean
p14
aVtalented
p15
aVinnocent
p16
aaa(lp17
(lp18
I12
aI40
aa(lp19
I14
aa(lp20
Vangry
p21
aVdangerous
p22
aVfaithful
p23
aaa(lp24
(lp25
I7
aI32
aa(lp26
I27
aa(lp27
Vcomfortable
p28
aVclear
p29
aVstrong
p30
aaa(lp31
(lp32
I41
aI32
aa(lp33
I2
aa(lp34
Vextreme
p35
aVevil
p36
aVsafe
p37
aaa(lp38
(lp39
I32
aI37
aa(lp40
I48
aa(lp41
Vlonely
p42
aVbitter
p43
aVsuccessful
p44
aaa(lp45
(lp46
I10
aI1
aa(lp47
I27
aa(lp48
g35
ag37
aVweird
p49
aaa(lp50
(lp51
I28
aI6
aa(lp52
I37
aa(lp53
Vinsane
p54
ag23
aVlazy
p55
aaa(lp56
(lp57
I43
aI35
aa(lp58
I7
aa(lp59
Vfat
p60
aVjealous
p61
aVdark
p62
aaa(lp63
(lp64
I40
aI1
aa(lp65
I45
aa(lp66
Vdifficult
p67
aVclever
p68
ag49
aaa(lp69
(lp70
I19
aI37
aa(lp71
I45
aa(lp72
Vhealthy
p73
ag42
aVcreepy
p74
aaa(lp75
(lp76
I46
aI13
aa(lp77
I41
aa(lp78
g8
aVbright
p79
ag49
aaa(lp80
(lp81
I22
aI19
aa(lp82
I38
aa(lp83
Vhurt
p84
aVyoung
p85
aVstunning
p86
aaa(lp87
(lp88
I6
aI33
aa(lp89
I9
aa(lp90
Vdumb
p91
ag23
aVfunny
p92
aaa(lp93
(lp94
I26
aI18
aa(lp95
I7
aa(lp96
Vnasty
p97
ag62
ag74
aaa(lp98
(lp99
I19
aI11
aa(lp100
I25
aa(lp101
g73
aVsmooth
p102
aVfancy
p103
aaa(lp104
(lp105
I12
aI15
aa(lp106
I28
aa(lp107
g54
ag42
ag49
aaa(lp108
(lp109
I29
aI37
aa(lp110
I47
aa(lp111
Vdying
p112
aVviolent
p113
aVsleepy
p114
aaa(lp115
(lp116
I47
aI35
aa(lp117
I17
aa(lp118
g29
ag73
ag35
aaa(lp119
(lp120
I38
aI7
aa(lp121
I19
aa(lp122
g36
aVdead
p123
aVbeautiful
p124
aaa(lp125
(lp126
I25
aI0
aa(lp127
I7
aa(lp128
g60
ag92
aVsexy
p129
aaas.