(dp0
S'scenarios'
p1
(lp2
(lp3
(lp4
I14
aI3
aa(lp5
I6
aa(lp6
Vtired
p7
aVgorgeous
p8
aVhealthy
p9
aaa(lp10
(lp11
I27
aI7
aa(lp12
I31
aa(lp13
Vcute
p14
aVadorable
p15
aVoutdoor
p16
aaa(lp17
(lp18
I49
aI24
aa(lp19
I1
aa(lp20
Vsuccessful
p21
aVhungry
p22
aVdeadly
p23
aaa(lp24
(lp25
I31
aI3
aa(lp26
I42
aa(lp27
g15
aVdumb
p28
aVnasty
p29
aaa(lp30
(lp31
I31
aI47
aa(lp32
I44
aa(lp33
g15
ag14
aVempty
p34
aaa(lp35
(lp36
I34
aI21
aa(lp37
I16
aa(lp38
Vtalented
p39
aVillegal
p40
aVstunning
p41
aaa(lp42
(lp43
I26
aI31
aa(lp44
I48
aa(lp45
g39
ag23
ag34
aaa(lp46
(lp47
I31
aI6
aa(lp48
I24
aa(lp49
Vdifficult
p50
aVexcellent
p51
ag15
aaa(lp52
(lp53
I16
aI31
aa(lp54
I43
aa(lp55
Vrough
p56
ag14
ag15
aaa(lp57
(lp58
I48
aI35
aa(lp59
I31
aa(lp60
Vshy
p61
aVsleepy
p62
aVhurt
p63
aaa(lp64
(lp65
I31
aI32
aa(lp66
I5
aa(lp67
Vconfused
p68
ag14
ag56
aaa(lp69
(lp70
I32
aI24
aa(lp71
I4
aa(lp72
g22
ag51
ag16
aaa(lp73
(lp74
I47
aI15
aa(lp75
I28
aa(lp76
Vwicked
p77
aVclever
p78
aVclean
p79
aaa(lp80
(lp81
I9
aI6
aa(lp82
I40
aa(lp83
Vcreepy
p84
aVdying
p85
aVfat
p86
aaa(lp87
(lp88
I24
aI42
aa(lp89
I38
aa(lp90
Vdry
p91
ag21
aVviolent
p92
aaa(lp93
(lp94
I48
aI24
aa(lp95
I21
aa(lp96
Vlazy
p97
ag41
aVexcited
p98
aaa(lp99
(lp100
I23
aI21
aa(lp101
I31
aa(lp102
g15
aVangry
p103
aVextreme
p104
aaa(lp105
(lp106
I24
aI7
aa(lp107
I8
aa(lp108
Vproud
p109
ag97
aVattractive
p110
aaa(lp111
(lp112
I48
aI21
aa(lp113
I20
aa(lp114
g62
ag23
aVwet
p115
aaa(lp116
(lp117
I21
aI39
aa(lp118
I31
aa(lp119
g14
ag34
ag115
aaa(lp120
(lp121
I31
aI1
aa(lp122
I29
aa(lp123
g56
ag98
ag62
aaa(lp124
(lp125
I11
aI31
aa(lp126
I39
aa(lp127
g39
aVfresh
p128
ag56
aaa(lp129
(lp130
I23
aI42
aa(lp131
I31
aa(lp132
g97
aVbitter
p133
ag92
aaa(lp134
(lp135
I25
aI15
aa(lp136
I4
aa(lp137
g39
aVhilarious
p138
aVexpensive
p139
aaa(lp140
(lp141
I43
aI8
aa(lp142
I31
aa(lp143
g98
ag14
ag110
aaa(lp144
(lp145
I9
aI5
aa(lp146
I1
aa(lp147
Vsafe
p148
aVwarm
p149
ag103
aaa(lp150
(lp151
I1
aI3
aa(lp152
I15
aa(lp153
Vbusy
p154
aVugly
p155
aVcomfortable
p156
aaa(lp157
(lp158
I35
aI37
aa(lp159
I6
aa(lp160
Vdangerous
p161
ag86
aVfunny
p162
aaa(lp163
(lp164
I24
aI37
aa(lp165
I7
aa(lp166
g97
ag86
ag51
aaa(lp167
(lp168
I21
aI47
aa(lp169
I24
aa(lp170
g40
ag156
ag29
aaa(lp171
(lp172
I24
aI21
aa(lp173
I39
aa(lp174
g97
ag51
ag23
aaa(lp175
(lp176
I28
aI38
aa(lp177
I39
aa(lp178
g34
aVinsane
p179
ag56
aaa(lp180
(lp181
I7
aI11
aa(lp182
I12
aa(lp183
g98
ag110
ag34
aaa(lp184
(lp185
I8
aI0
aa(lp186
I39
aa(lp187
g110
ag39
ag23
aaa(lp188
(lp189
I44
aI37
aa(lp190
I8
aa(lp191
Vfaithful
p192
ag40
ag110
aaa(lp193
(lp194
I47
aI7
aa(lp195
I20
aa(lp196
g51
ag115
ag23
aaa(lp197
(lp198
I31
aI37
aa(lp199
I20
aa(lp200
g16
ag61
ag23
aaa(lp201
(lp202
I24
aI31
aa(lp203
I12
aa(lp204
Vweak
p205
ag39
ag14
aaa(lp206
(lp207
I7
aI43
aa(lp208
I20
aa(lp209
g51
ag77
ag50
aaa(lp210
(lp211
I15
aI24
aa(lp212
I1
aa(lp213
g22
ag156
aVcrazy
p214
aaa(lp215
(lp216
I14
aI47
aa(lp217
I33
aa(lp218
g14
ag63
ag51
aaa(lp219
(lp220
I14
aI3
aa(lp221
I1
aa(lp222
g9
aVdirty
p223
ag97
aaa(lp224
(lp225
I33
aI24
aa(lp226
I20
aa(lp227
g23
ag51
ag98
aaa(lp228
(lp229
I3
aI20
aa(lp230
I4
aa(lp231
g23
ag138
ag39
aaa(lp232
(lp233
I34
aI21
aa(lp234
I11
aa(lp235
g39
ag40
ag98
aaa(lp236
(lp237
I5
aI20
aa(lp238
I29
aa(lp239
g149
ag138
aVsexy
p240
aaa(lp241
(lp242
I20
aI6
aa(lp243
I7
aa(lp244
g51
ag23
ag77
aaa(lp245
(lp246
I6
aI15
aa(lp247
I44
aa(lp248
Vtough
p249
ag78
ag79
aaa(lp250
(lp251
I20
aI31
aa(lp252
I4
aa(lp253
g104
ag15
ag23
aaa(lp254
(lp255
I24
aI49
aa(lp256
I45
aa(lp257
g240
ag21
ag51
aaa(lp258
(lp259
I48
aI31
aa(lp260
I19
aa(lp261
g62
ag138
ag14
aaa(lp262
(lp263
I36
aI32
aa(lp264
I23
aa(lp265
g92
aVfriendly
p266
aVpeaceful
p267
aaa(lp268
(lp269
I30
aI15
aa(lp270
I31
aa(lp271
g21
ag15
ag92
aaa(lp272
(lp273
I29
aI20
aa(lp274
I5
aa(lp275
g162
ag149
ag91
aaa(lp276
(lp277
I29
aI0
aa(lp278
I31
aa(lp279
g84
ag98
ag104
aaa(lp280
(lp281
I8
aI7
aa(lp282
I29
aa(lp283
g51
ag138
ag15
aaa(lp284
(lp285
I47
aI42
aa(lp286
I15
aa(lp287
g192
ag156
ag56
aaa(lp288
(lp289
I5
aI15
aa(lp290
I7
aa(lp291
g79
ag110
aVevil
p292
aaa(lp293
(lp294
I28
aI25
aa(lp295
I7
aa(lp296
Vclear
p297
ag51
ag179
aaa(lp298
(lp299
I21
aI7
aa(lp300
I15
aa(lp301
g51
ag214
ag115
aaas.