(dp0
S'scenarios'
p1
(lp2
(lp3
(lp4
I3
aI28
aa(lp5
I27
aa(lp6
Vcute
p7
aVadorable
p8
aVempty
p9
aaa(lp10
(lp11
I27
aI2
aa(lp12
I6
aa(lp13
Vproud
p14
aVweird
p15
aVsafe
p16
aaa(lp17
(lp18
I2
aI7
aa(lp19
I28
aa(lp20
Vclean
p21
aVsleepy
p22
ag15
aaa(lp23
(lp24
I41
aI7
aa(lp25
I40
aa(lp26
Vclever
p27
ag9
aVdying
p28
aaa(lp29
(lp30
I12
aI9
aa(lp31
I2
aa(lp32
Vdifficult
p33
aVstunning
p34
ag14
aaa(lp35
(lp36
I29
aI47
aa(lp37
I15
aa(lp38
Vtired
p39
aVviolent
p40
aVinsane
p41
aaa(lp42
(lp43
I26
aI37
aa(lp44
I23
aa(lp45
Vexcited
p46
aVconfused
p47
aVsmooth
p48
aaa(lp49
(lp50
I2
aI10
aa(lp51
I12
aa(lp52
g21
aVtalented
p53
aVinnocent
p54
aaa(lp55
(lp56
I40
aI14
aa(lp57
I12
aa(lp58
Vangry
p59
aVdangerous
p60
aVfaithful
p61
aaa(lp62
(lp63
I32
aI27
aa(lp64
I7
aa(lp65
Vcomfortable
p66
aVclear
p67
aVstrong
p68
aaa(lp69
(lp70
I14
aI7
aa(lp71
I2
aa(lp72
g9
aVsexy
p73
ag53
aaa(lp74
(lp75
I37
aI28
aa(lp76
I14
aa(lp77
g8
aVchristian
p78
aVbroken
p79
aaa(lp80
(lp81
I32
aI2
aa(lp82
I41
aa(lp83
Vextreme
p84
aVevil
p85
ag16
aaa(lp86
(lp87
I37
aI48
aa(lp88
I32
aa(lp89
Vlonely
p90
aVbitter
p91
aVsuccessful
p92
aaa(lp93
(lp94
I1
aI27
aa(lp95
I10
aa(lp96
g84
ag16
ag15
aaa(lp97
(lp98
I21
aI7
aa(lp99
I41
aa(lp100
Vcold
p101
ag27
aVcrazy
p102
aaa(lp103
(lp104
I48
aI47
aa(lp105
I37
aa(lp106
Vwicked
p107
ag68
ag14
aaa(lp108
(lp109
I6
aI40
aa(lp110
I9
aa(lp111
g61
ag33
aVdivine
p112
aaa(lp113
(lp114
I6
aI37
aa(lp115
I28
aa(lp116
g41
ag61
aVlazy
p117
aaa(lp118
(lp119
I47
aI37
aa(lp120
I19
aa(lp121
Vweak
p122
ag46
aVcreepy
p123
aaa(lp124
(lp125
I32
aI26
aa(lp126
I30
aa(lp127
g59
ag8
aVdead
p128
aaa(lp129
(lp130
I2
aI41
aa(lp131
I12
aa(lp132
Voutdoor
p133
aVdeadly
p134
aVnasty
p135
aaa(lp136
(lp137
I45
aI4
aa(lp138
I39
aa(lp139
g85
aVhealthy
p140
ag14
aaa(lp141
(lp142
I29
aI47
aa(lp143
I48
aa(lp144
g68
ag39
ag22
aaa(lp145
(lp146
I35
aI7
aa(lp147
I43
aa(lp148
Vfat
p149
aVjealous
p150
aVdark
p151
aaa(lp152
(lp153
I1
aI45
aa(lp154
I40
aa(lp155
g33
ag27
ag15
aaa(lp156
(lp157
I7
aI38
aa(lp158
I26
aa(lp159
Vsick
p160
ag47
ag128
aaa(lp161
(lp162
I37
aI45
aa(lp163
I19
aa(lp164
g140
ag90
ag123
aaa(lp165
(lp166
I13
aI41
aa(lp167
I46
aa(lp168
g8
aVbright
p169
ag15
aaa(lp170
(lp171
I19
aI48
aa(lp172
I9
aa(lp173
Vshy
p174
aVbusy
p175
aVgorgeous
p176
aaa(lp177
(lp178
I41
aI12
aa(lp179
I40
aa(lp180
Vquiet
p181
ag47
aVstupid
p182
aaa(lp183
(lp184
I35
aI7
aa(lp185
I43
aa(lp186
Vloud
p187
ag151
ag174
aaa(lp188
(lp189
I41
aI28
aa(lp190
I12
aa(lp191
g181
ag27
ag134
aaa(lp192
(lp193
I7
aI48
aa(lp194
I9
aa(lp195
g117
ag107
ag140
aaa(lp196
(lp197
I19
aI38
aa(lp198
I22
aa(lp199
Vhurt
p200
aVyoung
p201
ag34
aaa(lp202
(lp203
I7
aI39
aa(lp204
I42
aa(lp205
g135
ag68
aVugly
p206
aaa(lp207
(lp208
I7
aI21
aa(lp209
I48
aa(lp210
g107
ag149
ag40
aaa(lp211
(lp212
I33
aI9
aa(lp213
I6
aa(lp214
Vdumb
p215
ag61
aVfunny
p216
aaa(lp217
(lp218
I35
aI13
aa(lp219
I6
aa(lp220
Vholy
p221
ag73
ag216
aaa(lp222
(lp223
I7
aI27
aa(lp224
I14
aa(lp225
g187
ag123
aVrough
p226
aaa(lp227
(lp228
I18
aI7
aa(lp229
I26
aa(lp230
g135
ag151
ag123
aaa(lp231
(lp232
I11
aI25
aa(lp233
I19
aa(lp234
g140
ag48
aVfancy
p235
aaa(lp236
(lp237
I11
aI6
aa(lp238
I15
aa(lp239
g221
ag78
ag134
aaa(lp240
(lp241
I22
aI29
aa(lp242
I7
aa(lp243
g84
ag128
ag41
aaa(lp244
(lp245
I1
aI40
aa(lp246
I15
aa(lp247
g33
ag27
ag187
aaa(lp248
(lp249
I15
aI28
aa(lp250
I12
aa(lp251
g41
ag90
ag15
aaa(lp252
(lp253
I42
aI37
aa(lp254
I7
aa(lp255
g175
ag68
ag206
aaa(lp256
(lp257
I22
aI38
aa(lp258
I4
aa(lp259
g34
ag14
ag201
aaa(lp260
(lp261
I37
aI47
aa(lp262
I29
aa(lp263
g28
ag40
ag22
aaa(lp264
(lp265
I35
aI17
aa(lp266
I47
aa(lp267
g67
ag140
ag84
aaa(lp268
(lp269
I31
aI36
aa(lp270
I49
aa(lp271
g92
ag41
ag174
aaa(lp272
(lp273
I41
aI30
aa(lp274
I48
aa(lp275
g128
ag135
ag175
aaa(lp276
(lp277
I7
aI19
aa(lp278
I38
aa(lp279
g85
ag128
aVbeautiful
p280
aaa(lp281
(lp282
I35
aI7
aa(lp283
I46
aa(lp284
g67
ag47
aVwarm
p285
aaa(lp286
(lp287
I48
aI44
aa(lp288
I12
aa(lp289
g53
ag60
aVdirty
p290
aaa(lp291
(lp292
I0
aI7
aa(lp293
I25
aa(lp294
g149
ag216
ag73
aaa(lp295
(lp296
I12
aI48
aa(lp297
I13
aa(lp298
g60
ag290
ag41
aaa(lp299
(lp300
I43
aI26
aa(lp301
I38
aa(lp302
g8
ag135
ag40
aaa(lp303
(lp304
I6
aI35
aa(lp305
I18
aa(lp306
Vexpensive
p307
ag84
ag60
aaa(lp308
(lp309
I30
aI3
aa(lp310
I32
aa(lp311
g150
ag128
ag92
aaas.