(dp0
S'scenarios'
p1
(lp2
(lp3
(lp4
I47
aI15
aa(lp5
I29
aa(lp6
Vtired
p7
aVviolent
p8
aVinsane
p9
aaa(lp10
(lp11
I37
aI23
aa(lp12
I26
aa(lp13
Vexcited
p14
aVconfused
p15
aVsmooth
p16
aaa(lp17
(lp18
I10
aI12
aa(lp19
I2
aa(lp20
Vclean
p21
aVtalented
p22
aVinnocent
p23
aaa(lp24
(lp25
I28
aI14
aa(lp26
I37
aa(lp27
Vadorable
p28
aVchristian
p29
aVbroken
p30
aaa(lp31
(lp32
I48
aI32
aa(lp33
I37
aa(lp34
Vlonely
p35
aVbitter
p36
aVsuccessful
p37
aaa(lp38
(lp39
I27
aI10
aa(lp40
I1
aa(lp41
Vextreme
p42
aVsafe
p43
aVweird
p44
aaa(lp45
(lp46
I7
aI41
aa(lp47
I21
aa(lp48
Vcold
p49
aVclever
p50
aVcrazy
p51
aaa(lp52
(lp53
I47
aI37
aa(lp54
I48
aa(lp55
Vwicked
p56
aVstrong
p57
aVproud
p58
aaa(lp59
(lp60
I40
aI9
aa(lp61
I6
aa(lp62
Vfaithful
p63
aVdifficult
p64
aVdivine
p65
aaa(lp66
(lp67
I37
aI28
aa(lp68
I6
aa(lp69
g9
ag63
aVlazy
p70
aaa(lp71
(lp72
I37
aI19
aa(lp73
I47
aa(lp74
Vweak
p75
ag14
aVcreepy
p76
aaa(lp77
(lp78
I4
aI39
aa(lp79
I45
aa(lp80
Vevil
p81
aVhealthy
p82
ag58
aaa(lp83
(lp84
I7
aI43
aa(lp85
I35
aa(lp86
Vfat
p87
aVjealous
p88
aVdark
p89
aaa(lp90
(lp91
I45
aI19
aa(lp92
I37
aa(lp93
g82
ag35
ag76
aaa(lp94
(lp95
I41
aI46
aa(lp96
I13
aa(lp97
g28
aVbright
p98
ag44
aaa(lp99
(lp100
I48
aI9
aa(lp101
I19
aa(lp102
Vshy
p103
aVbusy
p104
aVgorgeous
p105
aaa(lp106
(lp107
I7
aI43
aa(lp108
I35
aa(lp109
Vloud
p110
ag89
ag103
aaa(lp111
(lp112
I48
aI9
aa(lp113
I7
aa(lp114
g70
ag56
ag82
aaa(lp115
(lp116
I39
aI42
aa(lp117
I7
aa(lp118
Vnasty
p119
ag57
aVugly
p120
aaa(lp121
(lp122
I13
aI6
aa(lp123
I35
aa(lp124
Vholy
p125
aVsexy
p126
aVfunny
p127
aaa(lp128
(lp129
I27
aI14
aa(lp130
I7
aa(lp131
g110
ag76
aVrough
p132
aaa(lp133
(lp134
I25
aI19
aa(lp135
I11
aa(lp136
g82
ag16
aVfancy
p137
aaa(lp138
(lp139
I6
aI15
aa(lp140
I11
aa(lp141
g125
ag29
aVdeadly
p142
aaa(lp143
(lp144
I28
aI12
aa(lp145
I15
aa(lp146
g9
ag35
ag44
aaa(lp147
(lp148
I37
aI7
aa(lp149
I42
aa(lp150
g104
ag57
ag120
aaa(lp151
(lp152
I38
aI4
aa(lp153
I22
aa(lp154
Vstunning
p155
ag58
aVyoung
p156
aaa(lp157
(lp158
I30
aI48
aa(lp159
I41
aa(lp160
Vdead
p161
ag119
ag104
aaa(lp162
(lp163
I19
aI38
aa(lp164
I7
aa(lp165
g81
ag161
aVbeautiful
p166
aaa(lp167
(lp168
I35
aI18
aa(lp169
I6
aa(lp170
Vexpensive
p171
ag42
aVdangerous
p172
aaas.