(dp0
S'scenarios'
p1
(lp2
(lp3
(lp4
S'artist'
p5
aS'beer'
p6
aa(lp7
S'country'
p8
aa(lp9
Vtired
p10
aVgorgeous
p11
aVhealthy
p12
aaa(lp13
(lp14
g6
ag8
aa(lp15
g5
aag9
aa(lp16
(lp17
g8
ag5
aa(lp18
g6
aag9
aa(lp19
(lp20
S'birthday'
p21
aS'lady'
p22
aa(lp23
S'hands'
p24
aa(lp25
Vcute
p26
aVadorable
p27
aVoutdoor
p28
aaa(lp29
(lp30
g22
ag24
aa(lp31
g21
aag25
aa(lp32
(lp33
g24
ag21
aa(lp34
g22
aag25
aa(lp35
(lp36
S'girl'
p37
aS'apple'
p38
aa(lp39
S'wings'
p40
aa(lp41
Vsuccessful
p42
aVhungry
p43
aVdeadly
p44
aaa(lp45
(lp46
g38
ag40
aa(lp47
g37
aag41
aa(lp48
(lp49
g40
ag37
aa(lp50
g38
aag41
aa(lp51
(lp52
S'god'
p53
aS'death'
p54
aa(lp55
S'night'
p56
aa(lp57
Vexpensive
p58
aVattractive
p59
ag26
aaa(lp60
(lp61
g54
ag56
aa(lp62
g53
aag57
aa(lp63
(lp64
g56
ag53
aa(lp65
g54
aag57
aa(lp66
(lp67
S'history'
p68
ag56
aa(lp69
g22
aa(lp70
g27
aVchristian
p71
aVshy
p72
aaa(lp73
(lp74
g56
ag22
aa(lp75
g68
aag70
aa(lp76
(lp77
g22
ag68
aa(lp78
g56
aag70
aa(lp79
(lp80
g5
aS'security'
p81
aa(lp82
g22
aa(lp83
g27
aVdumb
p84
aVnasty
p85
aaa(lp86
(lp87
g81
ag22
aa(lp88
g5
aag83
aa(lp89
(lp90
g22
ag5
aa(lp91
g81
aag83
aa(lp92
(lp93
g53
aS'relationship'
p94
aa(lp95
g22
aa(lp96
Vlazy
p97
aVempty
p98
aVsleepy
p99
aaa(lp100
(lp101
g94
ag22
aa(lp102
g53
aag96
aa(lp103
(lp104
g22
ag53
aa(lp105
g94
aag96
aa(lp106
(lp107
S'wedding'
p108
aS'street'
p109
aa(lp110
g22
aa(lp111
g27
ag26
ag98
aaa(lp112
(lp113
g109
ag22
aa(lp114
g108
aag111
aa(lp115
(lp116
g22
ag108
aa(lp117
g109
aag111
aa(lp118
(lp119
S'food'
p120
aS'gift'
p121
aa(lp122
g22
aa(lp123
Vrough
p124
aVviolent
p125
aVtalented
p126
aaa(lp127
(lp128
g121
ag22
aa(lp129
g120
aag123
aa(lp130
(lp131
g22
ag120
aa(lp132
g121
aag123
aa(lp133
(lp134
S'weight'
p135
ag22
aa(lp136
g37
aa(lp137
g99
ag98
ag26
aaa(lp138
(lp139
g22
ag37
aa(lp140
g135
aag137
aa(lp141
(lp142
g37
ag135
aa(lp143
g22
aag137
aa(lp144
(lp145
g22
ag40
aa(lp146
g68
aa(lp147
g72
ag99
aVsexy
p148
aaa(lp149
(lp150
g40
ag68
aa(lp151
g22
aag147
aa(lp152
(lp153
g68
ag22
aa(lp154
g40
aag147
aa(lp155
(lp156
g120
aS'dog'
p157
aa(lp158
S'morning'
p159
aa(lp160
g126
aVillegal
p161
aVstunning
p162
aaa(lp163
(lp164
g157
ag159
aa(lp165
g120
aag160
aa(lp166
(lp167
g159
ag120
aa(lp168
g157
aag160
aa(lp169
(lp170
g81
ag37
aa(lp171
g120
aa(lp172
g97
ag161
ag42
aaa(lp173
(lp174
g37
ag120
aa(lp175
g81
aag172
aa(lp176
(lp177
g120
ag81
aa(lp178
g37
aag172
aa(lp179
(lp180
S'holiday'
p181
ag37
aa(lp182
S'phone'
p183
aa(lp184
g42
ag43
aVpowerful
p185
aaa(lp186
(lp187
g37
ag183
aa(lp188
g181
aag184
aa(lp189
(lp190
g183
ag181
aa(lp191
g37
aag184
aa(lp192
(lp193
g22
ag135
aa(lp194
S'ocean'
p195
aa(lp196
g99
aVexcited
p197
ag27
aaa(lp198
(lp199
g135
ag195
aa(lp200
g22
aag196
aa(lp201
(lp202
g195
ag22
aa(lp203
g135
aag196
aa(lp204
(lp205
g22
ag135
aa(lp206
S'hair'
p207
aa(lp208
g126
ag44
ag98
aaa(lp209
(lp210
g135
ag207
aa(lp211
g22
aag208
aa(lp212
(lp213
g207
ag22
aa(lp214
g135
aag208
aa(lp215
(lp216
S'money'
p217
ag94
aa(lp218
g22
aa(lp219
g97
ag125
aVextreme
p220
aaa(lp221
(lp222
g94
ag22
aa(lp223
g217
aag219
aa(lp224
(lp225
g22
ag217
aa(lp226
g94
aag219
aa(lp227
(lp228
g6
ag37
aa(lp229
g22
aa(lp230
Vdifficult
p231
aVexcellent
p232
ag27
aaa(lp233
(lp234
g37
ag22
aa(lp235
g6
aag230
aa(lp236
(lp237
g22
ag6
aa(lp238
g37
aag230
aa(lp239
(lp240
S'legs'
p241
ag37
aa(lp242
g68
aa(lp243
g42
ag232
ag85
aaa(lp244
(lp245
g37
ag68
aa(lp246
g241
aag243
aa(lp247
(lp248
g68
ag241
aa(lp249
g37
aag243
aa(lp250
(lp251
g22
aS'area'
p252
aa(lp253
g68
aa(lp254
g72
ag97
ag27
aaa(lp255
(lp256
g252
ag68
aa(lp257
g22
aag254
aa(lp258
(lp259
g68
ag22
aa(lp260
g252
aag254
aa(lp261
(lp262
g22
aS'sky'
p263
aa(lp264
g157
aa(lp265
g124
ag26
ag27
aaa(lp266
(lp267
g263
ag157
aa(lp268
g22
aag265
aa(lp269
(lp270
g157
ag22
aa(lp271
g263
aag265
aa(lp272
(lp273
g22
ag207
aa(lp274
g38
aa(lp275
g126
ag99
ag124
aaa(lp276
(lp277
g207
ag38
aa(lp278
g22
aag275
aa(lp279
(lp280
g38
ag22
aa(lp281
g207
aag275
aa(lp282
(lp283
g56
ag22
aa(lp284
g135
aa(lp285
g72
ag99
aVhurt
p286
aaa(lp287
(lp288
g22
ag135
aa(lp289
g56
aag285
aa(lp290
(lp291
g135
ag56
aa(lp292
g22
aag285
aa(lp293
(lp294
S'city'
p295
aS'chocolate'
p296
aa(lp297
g22
aa(lp298
g197
aVweak
p299
ag26
aaa(lp300
(lp301
g296
ag22
aa(lp302
g295
aag298
aa(lp303
(lp304
g22
ag295
aa(lp305
g296
aag298
aa(lp306
(lp307
g241
aS'beauty'
p308
aa(lp309
g22
aa(lp310
Vconfused
p311
ag26
ag124
aaa(lp312
(lp313
g308
ag22
aa(lp314
g241
aag310
aa(lp315
(lp316
g22
ag241
aa(lp317
g308
aag310
aa(lp318
(lp319
g37
aS'baby'
p320
aa(lp321
g241
aa(lp322
g43
ag232
ag28
aaa(lp323
(lp324
g320
ag241
aa(lp325
g37
aag322
aa(lp326
(lp327
g241
ag37
aa(lp328
g320
aag322
aa(lp329
(lp330
g94
ag56
aa(lp331
g181
aa(lp332
Vfresh
p333
ag85
ag220
aaa(lp334
(lp335
g56
ag181
aa(lp336
g94
aag332
aa(lp337
(lp338
g181
ag94
aa(lp339
g56
aag332
aa(lp340
(lp341
g68
ag37
aa(lp342
g108
aa(lp343
Vcold
p344
ag97
ag220
aaa(lp345
(lp346
g37
ag108
aa(lp347
g68
aag343
aa(lp348
(lp349
g108
ag68
aa(lp350
g37
aag343
aa(lp351
(lp352
S'training'
p353
ag22
aa(lp354
g320
aa(lp355
Vclear
p356
ag126
ag97
aaa(lp357
(lp358
g22
ag320
aa(lp359
g353
aag355
aa(lp360
(lp361
g320
ag353
aa(lp362
g22
aag355
aa(lp363
(lp364
g21
aS'heart'
p365
aa(lp366
g159
aa(lp367
g72
ag59
ag185
aaa(lp368
(lp369
g365
ag159
aa(lp370
g21
aag367
aa(lp371
(lp372
g159
ag21
aa(lp373
g365
aag367
aa(lp374
(lp375
g54
ag365
aa(lp376
g108
aa(lp377
Vwicked
p378
aVclever
p379
aVclean
p380
aaa(lp381
(lp382
g365
ag108
aa(lp383
g54
aag377
aa(lp384
(lp385
g108
ag54
aa(lp386
g365
aag377
aa(lp387
(lp388
g6
aS'road'
p389
aa(lp390
S'business'
p391
aa(lp392
Vcreepy
p393
aVdying
p394
aVfat
p395
aaa(lp396
(lp397
g389
ag391
aa(lp398
g6
aag392
aa(lp399
(lp400
g391
ag6
aa(lp401
g389
aag392
aa(lp402
(lp403
g81
ag183
aa(lp404
g37
aa(lp405
Vdry
p406
ag42
ag125
aaa(lp407
(lp408
g183
ag37
aa(lp409
g81
aag405
aa(lp410
(lp411
g37
ag81
aa(lp412
g183
aag405
aa(lp413
(lp414
g37
ag120
aa(lp415
g135
aa(lp416
g97
ag162
ag197
aaa(lp417
(lp418
g120
ag135
aa(lp419
g37
aag416
aa(lp420
(lp421
g135
ag37
aa(lp422
g120
aag416
aa(lp423
(lp424
g120
ag22
aa(lp425
g121
aa(lp426
g27
aVangry
p427
ag220
aaa(lp428
(lp429
g22
ag121
aa(lp430
g120
aag426
aa(lp431
(lp432
g121
ag120
aa(lp433
g22
aag426
aa(lp434
(lp435
g21
aS'boy'
p436
aa(lp437
g37
aa(lp438
Vproud
p439
ag97
ag59
aaa(lp440
(lp441
g436
ag37
aa(lp442
g21
aag438
aa(lp443
(lp444
g37
ag21
aa(lp445
g436
aag438
aa(lp446
(lp447
g120
aS'feelings'
p448
aa(lp449
g135
aa(lp450
g99
ag44
aVwet
p451
aaa(lp452
(lp453
g448
ag135
aa(lp454
g120
aag450
aa(lp455
(lp456
g135
ag120
aa(lp457
g448
aag450
aa(lp458
(lp459
g120
ag5
aa(lp460
S'performance'
p461
aa(lp462
g84
ag72
ag161
aaa(lp463
(lp464
g5
ag461
aa(lp465
g120
aag462
aa(lp466
(lp467
g461
ag120
aa(lp468
g5
aag462
aa(lp469
(lp470
g353
ag54
aa(lp471
g40
aa(lp472
g59
aVwarm
p473
ag380
aaa(lp474
(lp475
g54
ag40
aa(lp476
g353
aag472
aa(lp477
(lp478
g40
ag353
aa(lp479
g54
aag472
aa(lp480
(lp481
g94
ag22
aa(lp482
g120
aa(lp483
g26
ag98
ag451
aaa(lp484
(lp485
g22
ag120
aa(lp486
g94
aag483
aa(lp487
(lp488
g120
ag94
aa(lp489
g22
aag483
aa(lp490
(lp491
g38
ag68
aa(lp492
g22
aa(lp493
g124
ag197
ag99
aaa(lp494
(lp495
g68
ag22
aa(lp496
g38
aag493
aa(lp497
(lp498
g22
ag38
aa(lp499
g68
aag493
aa(lp500
(lp501
g81
ag308
aa(lp502
g68
aa(lp503
Vsick
p504
ag85
aVfunny
p505
aaa(lp506
(lp507
g308
ag68
aa(lp508
g81
aag503
aa(lp509
(lp510
g68
ag81
aa(lp511
g308
aag503
aa(lp512
(lp513
g37
ag183
aa(lp514
g389
aa(lp515
g394
ag232
ag439
aaa(lp516
(lp517
g183
ag389
aa(lp518
g37
aag515
aa(lp519
(lp520
g389
ag37
aa(lp521
g183
aag515
aa(lp522
(lp523
g295
ag159
aa(lp524
g157
aa(lp525
g72
ag161
ag148
aaa(lp526
(lp527
g159
ag157
aa(lp528
g295
aag525
aa(lp529
(lp530
g157
ag295
aa(lp531
g159
aag525
aa(lp532
(lp533
g22
ag94
aa(lp534
S'child'
p535
aa(lp536
g126
ag333
ag124
aaa(lp537
(lp538
g94
ag535
aa(lp539
g22
aag536
aa(lp540
(lp541
g535
ag22
aa(lp542
g94
aag536
aa(lp543
(lp544
g38
ag461
aa(lp545
g120
aa(lp546
g26
ag161
aVstrange
p547
aaa(lp548
(lp549
g461
ag120
aa(lp550
g38
aag546
aa(lp551
(lp552
g120
ag38
aa(lp553
g461
aag546
aa(lp554
(lp555
g81
ag22
aa(lp556
g121
aa(lp557
g97
aVbitter
p558
ag125
aaa(lp559
(lp560
g22
ag121
aa(lp561
g81
aag557
aa(lp562
(lp563
g121
ag81
aa(lp564
g22
aag557
aa(lp565
(lp566
g38
ag296
aa(lp567
g94
aa(lp568
Vugly
p569
aVdangerous
p570
ag98
aaa(lp571
(lp572
g296
ag94
aa(lp573
g38
aag568
aa(lp574
(lp575
g94
ag38
aa(lp576
g296
aag568
aa(lp577
(lp578
g37
ag252
aa(lp579
g6
aa(lp580
g43
ag505
ag395
aaa(lp581
(lp582
g252
ag6
aa(lp583
g37
aag580
aa(lp584
(lp585
g6
ag37
aa(lp586
g252
aag580
aa(lp587
(lp588
g94
ag22
aa(lp589
S'family'
p590
aa(lp591
g451
ag27
ag161
aaa(lp592
(lp593
g22
ag590
aa(lp594
g94
aag591
aa(lp595
(lp596
g590
ag94
aa(lp597
g22
aag591
aa(lp598
(lp599
g54
ag320
aa(lp600
g53
aa(lp601
g126
aVhilarious
p602
ag58
aaa(lp603
(lp604
g320
ag53
aa(lp605
g54
aag601
aa(lp606
(lp607
g53
ag54
aa(lp608
g320
aag601
aa(lp609
(lp610
g53
ag54
aa(lp611
g56
aa(lp612
Vtraditional
p613
ag311
ag58
aaa(lp614
(lp615
g54
ag56
aa(lp616
g53
aag612
aa(lp617
(lp618
g56
ag53
aa(lp619
g54
aag612
aa(lp620
(lp621
g436
ag22
aa(lp622
g263
aa(lp623
g197
ag26
ag59
aaa(lp624
(lp625
g22
ag263
aa(lp626
g436
aag623
aa(lp627
(lp628
g263
ag436
aa(lp629
g22
aag623
aa(lp630
(lp631
g308
ag38
aa(lp632
g391
aa(lp633
Vsafe
p634
ag473
ag427
aaa(lp635
(lp636
g38
ag391
aa(lp637
g308
aag633
aa(lp638
(lp639
g391
ag308
aa(lp640
g38
aag633
aa(lp641
(lp642
g5
ag54
aa(lp643
g38
aa(lp644
Vbusy
p645
ag569
aVcomfortable
p646
aaa(lp647
(lp648
g54
ag38
aa(lp649
g5
aag644
aa(lp650
(lp651
g38
ag5
aa(lp652
g54
aag644
aa(lp653
(lp654
g217
ag207
aa(lp655
g21
aa(lp656
g379
ag232
ag378
aaa(lp657
(lp658
g207
ag21
aa(lp659
g217
aag656
aa(lp660
(lp661
g21
ag217
aa(lp662
g207
aag656
aa(lp663
(lp664
g461
ag6
aa(lp665
g56
aa(lp666
g570
ag395
ag505
aaa(lp667
(lp668
g6
ag56
aa(lp669
g461
aag666
aa(lp670
(lp671
g56
ag461
aa(lp672
g6
aag666
aa(lp673
(lp674
g461
ag21
aa(lp675
g37
aa(lp676
g97
ag395
ag232
aaa(lp677
(lp678
g21
ag37
aa(lp679
g461
aag676
aa(lp680
(lp681
g37
ag461
aa(lp682
g21
aag676
aa(lp683
(lp684
g108
ag37
aa(lp685
g120
aa(lp686
g161
ag646
ag85
aaa(lp687
(lp688
g37
ag120
aa(lp689
g108
aag686
aa(lp690
(lp691
g120
ag108
aa(lp692
g37
aag686
aa(lp693
(lp694
g448
ag263
aa(lp695
g461
aa(lp696
Vdead
p697
ag44
aVfancy
p698
aaa(lp699
(lp700
g263
ag461
aa(lp701
g448
aag696
aa(lp702
(lp703
g461
ag448
aa(lp704
g263
aag696
aa(lp705
(lp706
g120
ag94
aa(lp707
g37
aa(lp708
g97
ag232
ag44
aaa(lp709
(lp710
g94
ag37
aa(lp711
g120
aag708
aa(lp712
(lp713
g37
ag120
aa(lp714
g94
aag708
aa(lp715
(lp716
g38
ag6
aa(lp717
g461
aa(lp718
g44
aVdirty
p719
ag161
aaa(lp720
(lp721
g6
ag461
aa(lp722
g38
aag718
aa(lp723
(lp724
g461
ag38
aa(lp725
g6
aag718
aa(lp726
(lp727
g38
ag183
aa(lp728
g461
aa(lp729
g393
ag646
ag98
aaa(lp730
(lp731
g183
ag461
aa(lp732
g38
aag729
aa(lp733
(lp734
g461
ag38
aa(lp735
g183
aag729
aa(lp736
(lp737
g183
ag94
aa(lp738
g365
aa(lp739
g98
aVinsane
p740
ag124
aaa(lp741
(lp742
g94
ag365
aa(lp743
g183
aag739
aa(lp744
(lp745
g365
ag183
aa(lp746
g94
aag739
aa(lp747
(lp748
g535
ag296
aa(lp749
g21
aa(lp750
g197
ag59
ag98
aaa(lp751
(lp752
g296
ag21
aa(lp753
g535
aag750
aa(lp754
(lp755
g21
ag535
aa(lp756
g296
aag750
aa(lp757
(lp758
g21
ag22
aa(lp759
g94
aa(lp760
g26
ag356
ag99
aaa(lp761
(lp762
g22
ag94
aa(lp763
g21
aag760
aa(lp764
(lp765
g94
ag21
aa(lp766
g22
aag760
aa(lp767
(lp768
S'animal'
p769
ag94
aa(lp770
g436
aa(lp771
g59
ag126
ag44
aaa(lp772
(lp773
g94
ag436
aa(lp774
g769
aag771
aa(lp775
(lp776
g436
ag769
aa(lp777
g94
aag771
aa(lp778
(lp779
g94
ag22
aa(lp780
g38
aa(lp781
g393
ag98
ag197
aaa(lp782
(lp783
g22
ag38
aa(lp784
g94
aag781
aa(lp785
(lp786
g38
ag94
aa(lp787
g22
aag781
aa(lp788
(lp789
g461
ag436
aa(lp790
g109
aa(lp791
Vfaithful
p792
ag161
ag59
aaa(lp793
(lp794
g436
ag109
aa(lp795
g461
aag791
aa(lp796
(lp797
g109
ag461
aa(lp798
g436
aag791
aa(lp799
(lp800
g296
ag461
aa(lp801
g8
aa(lp802
g85
ag427
aVlovely
p803
aaa(lp804
(lp805
g461
ag8
aa(lp806
g296
aag802
aa(lp807
(lp808
g8
ag296
aa(lp809
g461
aag802
aa(lp810
(lp811
g21
ag448
aa(lp812
g108
aa(lp813
g232
ag451
ag44
aaa(lp814
(lp815
g448
ag108
aa(lp816
g21
aag813
aa(lp817
(lp818
g108
ag21
aa(lp819
g448
aag813
aa(lp820
(lp821
g461
ag448
aa(lp822
g22
aa(lp823
g28
ag72
ag44
aaa(lp824
(lp825
g448
ag22
aa(lp826
g461
aag823
aa(lp827
(lp828
g22
ag461
aa(lp829
g448
aag823
aa(lp830
(lp831
g108
ag296
aa(lp832
g308
aa(lp833
g719
ag427
ag634
aaa(lp834
(lp835
g296
ag308
aa(lp836
g108
aag833
aa(lp837
(lp838
g308
ag108
aa(lp839
g296
aag833
aa(lp840
(lp841
g53
ag121
aa(lp842
S'car'
p843
aa(lp844
Vdark
p845
ag740
ag220
aaa(lp846
(lp847
g121
ag843
aa(lp848
g53
aag844
aa(lp849
(lp850
g843
ag53
aa(lp851
g121
aag844
aa(lp852
(lp853
g22
ag296
aa(lp854
g37
aa(lp855
g299
ag126
ag26
aaa(lp856
(lp857
g296
ag37
aa(lp858
g22
aag855
aa(lp859
(lp860
g37
ag22
aa(lp861
g296
aag855
aa(lp862
(lp863
g263
ag448
aa(lp864
g21
aa(lp865
g232
ag378
ag231
aaa(lp866
(lp867
g448
ag21
aa(lp868
g263
aag865
aa(lp869
(lp870
g21
ag263
aa(lp871
g448
aag865
aa(lp872
(lp873
g40
ag21
aa(lp874
g217
aa(lp875
g378
aVjealous
p876
ag232
aaa(lp877
(lp878
g21
ag217
aa(lp879
g40
aag875
aa(lp880
(lp881
g217
ag40
aa(lp882
g21
aag875
aa(lp883
(lp884
S'text'
p885
ag53
aa(lp886
g22
aa(lp887
Vquiet
p888
ag26
ag161
aaa(lp889
(lp890
g53
ag22
aa(lp891
g885
aag887
aa(lp892
(lp893
g22
ag885
aa(lp894
g53
aag887
aa(lp895
(lp896
g37
ag38
aa(lp897
g54
aa(lp898
g43
ag646
aVcrazy
p899
aaa(lp900
(lp901
g38
ag54
aa(lp902
g37
aag898
aa(lp903
(lp904
g54
ag37
aa(lp905
g38
aag898
aa(lp906
(lp907
g108
ag217
aa(lp908
g8
aa(lp909
g26
ag286
ag232
aaa(lp910
(lp911
g217
ag8
aa(lp912
g108
aag909
aa(lp913
(lp914
g8
ag108
aa(lp915
g217
aag909
aa(lp916
(lp917
g38
ag769
aa(lp918
g22
aa(lp919
g220
ag197
ag98
aaa(lp920
(lp921
g769
ag22
aa(lp922
g38
aag919
aa(lp923
(lp924
g22
ag38
aa(lp925
g769
aag919
aa(lp926
(lp927
g5
ag38
aa(lp928
g8
aa(lp929
g12
ag719
ag97
aaa(lp930
(lp931
g38
ag8
aa(lp932
g5
aag929
aa(lp933
(lp934
g8
ag5
aa(lp935
g38
aag929
aa(lp936
(lp937
g6
ag108
aa(lp938
g5
aa(lp939
g395
aVsmooth
p940
ag378
aaa(lp941
(lp942
g108
ag5
aa(lp943
g6
aag939
aa(lp944
(lp945
g5
ag6
aa(lp946
g108
aag939
aa(lp947
(lp948
g37
ag448
aa(lp949
g217
aa(lp950
g44
ag232
ag197
aaa(lp951
(lp952
g448
ag217
aa(lp953
g37
aag950
aa(lp954
(lp955
g217
ag37
aa(lp956
g448
aag950
aa(lp957
(lp958
g448
ag320
aa(lp959
g5
aa(lp960
g44
ag602
ag126
aaa(lp961
(lp962
g320
ag5
aa(lp963
g448
aag960
aa(lp964
(lp965
g5
ag448
aa(lp966
g320
aag960
aa(lp967
(lp968
g120
ag535
aa(lp969
g159
aa(lp970
g126
ag161
ag197
aaa(lp971
(lp972
g535
ag159
aa(lp973
g120
aag970
aa(lp974
(lp975
g159
ag120
aa(lp976
g535
aag970
aa(lp977
(lp978
g448
ag68
aa(lp979
g308
aa(lp980
g473
ag602
ag148
aaa(lp981
(lp982
g68
ag308
aa(lp983
g448
aag980
aa(lp984
(lp985
g308
ag448
aa(lp986
g68
aag980
aa(lp987
(lp988
g6
ag21
aa(lp989
g448
aa(lp990
g232
ag44
ag378
aaa(lp991
(lp992
g21
ag448
aa(lp993
g6
aag990
aa(lp994
(lp995
g448
ag6
aa(lp996
g21
aag990
aa(lp997
(lp998
g22
ag38
aa(lp999
g109
aa(lp1000
g97
ag27
ag162
aaa(lp1001
(lp1002
g38
ag109
aa(lp1003
g22
aag1000
aa(lp1004
(lp1005
g109
ag22
aa(lp1006
g38
aag1000
aa(lp1007
(lp1008
g54
ag109
aa(lp1009
g6
aa(lp1010
Vtough
p1011
ag379
ag380
aaa(lp1012
(lp1013
g109
ag6
aa(lp1014
g54
aag1010
aa(lp1015
(lp1016
g6
ag54
aa(lp1017
g109
aag1010
aa(lp1018
(lp1019
g241
ag37
aa(lp1020
g252
aa(lp1021
g43
ag333
aVfavorite
p1022
aaa(lp1023
(lp1024
g37
ag252
aa(lp1025
g241
aag1021
aa(lp1026
(lp1027
g252
ag241
aa(lp1028
g37
aag1021
aa(lp1029
(lp1030
g885
ag53
aa(lp1031
g241
aa(lp1032
g85
ag380
ag42
aaa(lp1033
(lp1034
g53
ag241
aa(lp1035
g885
aag1032
aa(lp1036
(lp1037
g241
ag885
aa(lp1038
g53
aag1032
aa(lp1039
(lp1040
g22
ag320
aa(lp1041
g448
aa(lp1042
g220
ag27
ag44
aaa(lp1043
(lp1044
g320
ag448
aa(lp1045
g22
aag1042
aa(lp1046
(lp1047
g448
ag22
aa(lp1048
g320
aag1042
aa(lp1049
(lp1050
g121
ag120
aa(lp1051
g22
aa(lp1052
g97
ag42
ag124
aaa(lp1053
(lp1054
g120
ag22
aa(lp1055
g121
aag1052
aa(lp1056
(lp1057
g22
ag121
aa(lp1058
g120
aag1052
aa(lp1059
(lp1060
g40
ag885
aa(lp1061
g37
aa(lp1062
g148
ag42
ag232
aaa(lp1063
(lp1064
g885
ag37
aa(lp1065
g40
aag1062
aa(lp1066
(lp1067
g37
ag40
aa(lp1068
g885
aag1062
aa(lp1069
(lp1070
g22
ag590
aa(lp1071
g135
aa(lp1072
g99
ag602
ag26
aaa(lp1073
(lp1074
g590
ag135
aa(lp1075
g22
aag1072
aa(lp1076
(lp1077
g135
ag22
aa(lp1078
g590
aag1072
aa(lp1079
(lp1080
g241
ag121
aa(lp1081
g195
aa(lp1082
g125
aVfriendly
p1083
aVpeaceful
p1084
aaa(lp1085
(lp1086
g121
ag195
aa(lp1087
g241
aag1082
aa(lp1088
(lp1089
g195
ag241
aa(lp1090
g121
aag1082
aa(lp1091
(lp1092
g54
ag22
aa(lp1093
g181
aa(lp1094
g42
ag27
ag125
aaa(lp1095
(lp1096
g22
ag181
aa(lp1097
g54
aag1094
aa(lp1098
(lp1099
g181
ag54
aa(lp1100
g22
aag1094
aa(lp1101
(lp1102
g21
ag54
aa(lp1103
g24
aa(lp1104
g379
ag899
ag28
aaa(lp1105
(lp1106
g54
ag24
aa(lp1107
g21
aag1104
aa(lp1108
(lp1109
g24
ag21
aa(lp1110
g54
aag1104
aa(lp1111
(lp1112
g22
ag5
aa(lp1113
g21
aa(lp1114
g26
ag12
ag380
aaa(lp1115
(lp1116
g5
ag21
aa(lp1117
g22
aag1114
aa(lp1118
(lp1119
g21
ag22
aa(lp1120
g5
aag1114
aa(lp1121
(lp1122
g38
ag296
aa(lp1123
g24
aa(lp1124
g570
ag569
ag393
aaa(lp1125
(lp1126
g296
ag24
aa(lp1127
g38
aag1124
aa(lp1128
(lp1129
g24
ag38
aa(lp1130
g296
aag1124
aa(lp1131
(lp1132
g448
ag308
aa(lp1133
g68
aa(lp1134
g505
ag473
ag406
aaa(lp1135
(lp1136
g308
ag68
aa(lp1137
g448
aag1134
aa(lp1138
(lp1139
g68
ag448
aa(lp1140
g308
aag1134
aa(lp1141
(lp1142
g241
ag308
aa(lp1143
g121
aa(lp1144
g71
ag406
ag125
aaa(lp1145
(lp1146
g308
ag121
aa(lp1147
g241
aag1144
aa(lp1148
(lp1149
g121
ag241
aa(lp1150
g308
aag1144
aa(lp1151
(lp1152
g769
ag22
aa(lp1153
g68
aa(lp1154
g393
ag197
ag220
aaa(lp1155
(lp1156
g22
ag68
aa(lp1157
g769
aag1154
aa(lp1158
(lp1159
g68
ag769
aa(lp1160
g22
aag1154
aa(lp1161
(lp1162
g461
ag81
aa(lp1163
g6
aa(lp1164
g803
aVholy
p1165
ag602
aaa(lp1166
(lp1167
g81
ag6
aa(lp1168
g461
aag1164
aa(lp1169
(lp1170
g6
ag461
aa(lp1171
g81
aag1164
aa(lp1172
(lp1173
g21
ag68
aa(lp1174
g436
aa(lp1175
g232
ag602
ag27
aaa(lp1176
(lp1177
g68
ag436
aa(lp1178
g21
aag1175
aa(lp1179
(lp1180
g436
ag21
aa(lp1181
g68
aag1175
aa(lp1182
(lp1183
g436
ag21
aa(lp1184
g94
aa(lp1185
g697
ag148
ag59
aaa(lp1186
(lp1187
g21
ag94
aa(lp1188
g436
aag1185
aa(lp1189
(lp1190
g94
ag436
aa(lp1191
g21
aag1185
aa(lp1192
(lp1193
S'evening'
p1194
ag183
aa(lp1195
g353
aa(lp1196
Vrich
p1197
aVpretty
p1198
ag197
aaa(lp1199
(lp1200
g183
ag353
aa(lp1201
g1194
aag1196
aa(lp1202
(lp1203
g353
ag1194
aa(lp1204
g183
aag1196
aa(lp1205
(lp1206
g108
ag38
aa(lp1207
g461
aa(lp1208
g356
ag161
ag27
aaa(lp1209
(lp1210
g38
ag461
aa(lp1211
g108
aag1208
aa(lp1212
(lp1213
g461
ag108
aa(lp1214
g38
aag1208
aa(lp1215
(lp1216
g81
ag54
aa(lp1217
g108
aa(lp1218
g792
ag646
ag124
aaa(lp1219
(lp1220
g54
ag108
aa(lp1221
g81
aag1218
aa(lp1222
(lp1223
g108
ag81
aa(lp1224
g54
aag1218
aa(lp1225
(lp1226
g183
ag8
aa(lp1227
g461
aa(lp1228
g10
ag220
ag803
aaa(lp1229
(lp1230
g8
ag461
aa(lp1231
g183
aag1228
aa(lp1232
(lp1233
g461
ag183
aa(lp1234
g8
aag1228
aa(lp1235
(lp1236
g461
ag296
aa(lp1237
g38
aa(lp1238
g899
ag44
ag569
aaa(lp1239
(lp1240
g296
ag38
aa(lp1241
g461
aag1238
aa(lp1242
(lp1243
g38
ag461
aa(lp1244
g296
aag1238
aa(lp1245
(lp1246
g38
ag37
aa(lp1247
g183
aa(lp1248
g124
ag162
ag85
aaa(lp1249
(lp1250
g37
ag183
aa(lp1251
g38
aag1248
aa(lp1252
(lp1253
g183
ag38
aa(lp1254
g37
aag1248
aa(lp1255
(lp1256
g885
ag37
aa(lp1257
g68
aa(lp1258
g27
ag344
ag161
aaa(lp1259
(lp1260
g37
ag68
aa(lp1261
g885
aag1258
aa(lp1262
(lp1263
g68
ag885
aa(lp1264
g37
aag1258
aa(lp1265
(lp1266
g6
ag5
aa(lp1267
g391
aa(lp1268
g27
ag378
ag395
aaa(lp1269
(lp1270
g5
ag391
aa(lp1271
g6
aag1268
aa(lp1272
(lp1273
g391
ag6
aa(lp1274
g5
aag1268
aa(lp1275
(lp1276
g54
ag21
aa(lp1277
g308
aa(lp1278
g380
ag59
aVevil
p1279
aaa(lp1280
(lp1281
g21
ag308
aa(lp1282
g54
aag1278
aa(lp1283
(lp1284
g308
ag54
aa(lp1285
g21
aag1278
aa(lp1286
(lp1287
g53
ag21
aa(lp1288
g365
aa(lp1289
g356
ag232
ag740
aaa(lp1290
(lp1291
g21
ag365
aa(lp1292
g53
aag1289
aa(lp1293
(lp1294
g365
ag53
aa(lp1295
g21
aag1289
aa(lp1296
(lp1297
g21
ag54
aa(lp1298
g120
aa(lp1299
g232
ag899
ag451
aaa(lp1300
(lp1301
g54
ag120
aa(lp1302
g21
aag1299
aa(lp1303
(lp1304
g120
ag21
aa(lp1305
g54
aag1299
aa(lp1306
(lp1307
g5
aS'eyes'
p1308
aa(lp1309
g308
aa(lp1310
g719
aVbad
p1311
ag85
aaa(lp1312
(lp1313
g1308
ag308
aa(lp1314
g5
aag1310
aa(lp1315
(lp1316
g308
ag5
aa(lp1317
g1308
aag1310
aa(lp1318
(lp1319
g183
ag22
aa(lp1320
g54
aa(lp1321
g99
ag379
aVsweet
p1322
aaa(lp1323
(lp1324
g22
ag54
aa(lp1325
g183
aag1321
aa(lp1326
(lp1327
g54
ag183
aa(lp1328
g22
aag1321
aas.