(dp0
S'scenarios'
p1
(lp2
(lp3
(lp4
I15
aI29
aa(lp5
I47
aa(lp6
Vtired
p7
aVviolent
p8
aVinsane
p9
aaa(lp10
(lp11
I23
aI26
aa(lp12
I37
aa(lp13
Vexcited
p14
aVconfused
p15
aVsmooth
p16
aaa(lp17
(lp18
I12
aI2
aa(lp19
I10
aa(lp20
Vclean
p21
aVtalented
p22
aVinnocent
p23
aaa(lp24
(lp25
I14
aI37
aa(lp26
I28
aa(lp27
Vadorable
p28
aVchristian
p29
aVbroken
p30
aaa(lp31
(lp32
I32
aI37
aa(lp33
I48
aa(lp34
Vlonely
p35
aVbitter
p36
aVsuccessful
p37
aaa(lp38
(lp39
I10
aI1
aa(lp40
I27
aa(lp41
Vextreme
p42
aVsafe
p43
aVweird
p44
aaa(lp45
(lp46
I41
aI21
aa(lp47
I7
aa(lp48
Vcold
p49
aVclever
p50
aVcrazy
p51
aaa(lp52
(lp53
I37
aI48
aa(lp54
I47
aa(lp55
Vwicked
p56
aVstrong
p57
aVproud
p58
aaa(lp59
(lp60
I9
aI6
aa(lp61
I40
aa(lp62
Vfaithful
p63
aVdifficult
p64
aVdivine
p65
aaa(lp66
(lp67
I28
aI6
aa(lp68
I37
aa(lp69
g9
ag63
aVlazy
p70
aaa(lp71
(lp72
I19
aI47
aa(lp73
I37
aa(lp74
Vweak
p75
ag14
aVcreepy
p76
aaa(lp77
(lp78
I39
aI45
aa(lp79
I4
aa(lp80
Vevil
p81
aVhealthy
p82
ag58
aaa(lp83
(lp84
I43
aI35
aa(lp85
I7
aa(lp86
Vfat
p87
aVjealous
p88
aVdark
p89
aaa(lp90
(lp91
I19
aI37
aa(lp92
I45
aa(lp93
g82
ag35
ag76
aaa(lp94
(lp95
I46
aI13
aa(lp96
I41
aa(lp97
g28
aVbright
p98
ag44
aaa(lp99
(lp100
I9
aI19
aa(lp101
I48
aa(lp102
Vshy
p103
aVbusy
p104
aVgorgeous
p105
aaa(lp106
(lp107
I43
aI35
aa(lp108
I7
aa(lp109
Vloud
p110
ag89
ag103
aaa(lp111
(lp112
I9
aI7
aa(lp113
I48
aa(lp114
g70
ag56
ag82
aaa(lp115
(lp116
I42
aI7
aa(lp117
I39
aa(lp118
Vnasty
p119
ag57
aVugly
p120
aaa(lp121
(lp122
I6
aI35
aa(lp123
I13
aa(lp124
Vholy
p125
aVsexy
p126
aVfunny
p127
aaa(lp128
(lp129
I14
aI7
aa(lp130
I27
aa(lp131
g110
ag76
aVrough
p132
aaa(lp133
(lp134
I19
aI11
aa(lp135
I25
aa(lp136
g82
ag16
aVfancy
p137
aaa(lp138
(lp139
I15
aI11
aa(lp140
I6
aa(lp141
g125
ag29
aVdeadly
p142
aaa(lp143
(lp144
I12
aI15
aa(lp145
I28
aa(lp146
g9
ag35
ag44
aaa(lp147
(lp148
I7
aI42
aa(lp149
I37
aa(lp150
g104
ag57
ag120
aaa(lp151
(lp152
I4
aI22
aa(lp153
I38
aa(lp154
Vstunning
p155
ag58
aVyoung
p156
aaa(lp157
(lp158
I48
aI41
aa(lp159
I30
aa(lp160
Vdead
p161
ag119
ag104
aaa(lp162
(lp163
I38
aI7
aa(lp164
I19
aa(lp165
g81
ag161
aVbeautiful
p166
aaa(lp167
(lp168
I18
aI6
aa(lp169
I35
aa(lp170
Vexpensive
p171
ag42
aVdangerous
p172
aaas.