(dp0
S'scenarios'
p1
(lp2
(lp3
(lp4
I3
aI6
aa(lp5
I14
aa(lp6
Vtired
p7
aVgorgeous
p8
aVhealthy
p9
aaa(lp10
(lp11
I7
aI31
aa(lp12
I27
aa(lp13
Vcute
p14
aVadorable
p15
aVoutdoor
p16
aaa(lp17
(lp18
I24
aI1
aa(lp19
I49
aa(lp20
Vsuccessful
p21
aVhungry
p22
aVdeadly
p23
aaa(lp24
(lp25
I25
aI15
aa(lp26
I35
aa(lp27
Vexpensive
p28
aVattractive
p29
ag14
aaa(lp30
(lp31
I29
aI35
aa(lp32
I31
aa(lp33
g15
aVchristian
p34
aVshy
p35
aaa(lp36
(lp37
I3
aI42
aa(lp38
I31
aa(lp39
g15
aVdumb
p40
aVnasty
p41
aaa(lp42
(lp43
I25
aI39
aa(lp44
I31
aa(lp45
Vlazy
p46
aVempty
p47
aVsleepy
p48
aaa(lp49
(lp50
I47
aI44
aa(lp51
I31
aa(lp52
g15
ag14
ag47
aaa(lp53
(lp54
I21
aI23
aa(lp55
I31
aa(lp56
Vrough
p57
aVviolent
p58
aVtalented
p59
aaa(lp60
(lp61
I48
aI31
aa(lp62
I24
aa(lp63
g48
ag47
ag14
aaa(lp64
(lp65
I31
aI49
aa(lp66
I29
aa(lp67
g35
ag48
aVsexy
p68
aaa(lp69
(lp70
I21
aI16
aa(lp71
I34
aa(lp72
g59
aVillegal
p73
aVstunning
p74
aaa(lp75
(lp76
I42
aI24
aa(lp77
I21
aa(lp78
g46
ag73
ag21
aaa(lp79
(lp80
I30
aI24
aa(lp81
I38
aa(lp82
g21
ag22
aVpowerful
p83
aaa(lp84
(lp85
I31
aI48
aa(lp86
I36
aa(lp87
g48
aVexcited
p88
ag15
aaa(lp89
(lp90
I31
aI48
aa(lp91
I26
aa(lp92
g59
ag23
ag47
aaa(lp93
(lp94
I33
aI39
aa(lp95
I31
aa(lp96
g46
ag58
aVextreme
p97
aaa(lp98
(lp99
I6
aI24
aa(lp100
I31
aa(lp101
Vdifficult
p102
aVexcellent
p103
ag15
aaa(lp104
(lp105
I32
aI24
aa(lp106
I29
aa(lp107
g21
ag103
ag41
aaa(lp108
(lp109
I31
aI2
aa(lp110
I29
aa(lp111
g35
ag46
ag15
aaa(lp112
(lp113
I31
aI43
aa(lp114
I16
aa(lp115
g57
ag14
ag15
aaa(lp116
(lp117
I31
aI26
aa(lp118
I1
aa(lp119
g59
ag48
ag57
aaa(lp120
(lp121
I35
aI31
aa(lp122
I48
aa(lp123
g35
ag48
aVhurt
p124
aaa(lp125
(lp126
I13
aI12
aa(lp127
I31
aa(lp128
g88
aVweak
p129
ag14
aaa(lp130
(lp131
I32
aI5
aa(lp132
I31
aa(lp133
Vconfused
p134
ag14
ag57
aaa(lp135
(lp136
I24
aI4
aa(lp137
I32
aa(lp138
g22
ag103
ag16
aaa(lp139
(lp140
I39
aI35
aa(lp141
I30
aa(lp142
Vfresh
p143
ag41
ag97
aaa(lp144
(lp145
I29
aI24
aa(lp146
I47
aa(lp147
Vcold
p148
ag46
ag97
aaa(lp149
(lp150
I46
aI31
aa(lp151
I4
aa(lp152
Vclear
p153
ag59
ag46
aaa(lp154
(lp155
I7
aI28
aa(lp156
I34
aa(lp157
g35
ag29
ag83
aaa(lp158
(lp159
I15
aI28
aa(lp160
I47
aa(lp161
Vwicked
p162
aVclever
p163
aVclean
p164
aaa(lp165
(lp166
I6
aI40
aa(lp167
I9
aa(lp168
Vcreepy
p169
aVdying
p170
aVfat
p171
aaa(lp172
(lp173
I42
aI38
aa(lp174
I24
aa(lp175
Vdry
p176
ag21
ag58
aaa(lp177
(lp178
I24
aI21
aa(lp179
I48
aa(lp180
g46
ag74
ag88
aaa(lp181
(lp182
I21
aI31
aa(lp183
I23
aa(lp184
g15
aVangry
p185
ag97
aaa(lp186
(lp187
I7
aI8
aa(lp188
I24
aa(lp189
Vproud
p190
ag46
ag29
aaa(lp191
(lp192
I21
aI20
aa(lp193
I48
aa(lp194
g48
ag23
aVwet
p195
aaa(lp196
(lp197
I21
aI3
aa(lp198
I37
aa(lp199
g40
ag35
ag73
aaa(lp200
(lp201
I46
aI15
aa(lp202
I49
aa(lp203
g29
aVwarm
p204
ag164
aaa(lp205
(lp206
I39
aI31
aa(lp207
I21
aa(lp208
g14
ag47
ag195
aaa(lp209
(lp210
I1
aI29
aa(lp211
I31
aa(lp212
g57
ag88
ag48
aaa(lp213
(lp214
I42
aI5
aa(lp215
I29
aa(lp216
Vsick
p217
ag41
aVfunny
p218
aaa(lp219
(lp220
I24
aI38
aa(lp221
I40
aa(lp222
g170
ag103
ag190
aaa(lp223
(lp224
I13
aI34
aa(lp225
I16
aa(lp226
g35
ag73
ag68
aaa(lp227
(lp228
I31
aI39
aa(lp229
I11
aa(lp230
g59
ag143
ag57
aaa(lp231
(lp232
I1
aI37
aa(lp233
I21
aa(lp234
g14
ag73
aVstrange
p235
aaa(lp236
(lp237
I42
aI31
aa(lp238
I23
aa(lp239
g46
aVbitter
p240
ag58
aaa(lp241
(lp242
I1
aI12
aa(lp243
I39
aa(lp244
Vugly
p245
aVdangerous
p246
ag47
aaa(lp247
(lp248
I24
aI2
aa(lp249
I6
aa(lp250
g22
ag218
ag171
aaa(lp251
(lp252
I39
aI31
aa(lp253
I19
aa(lp254
g195
ag15
ag73
aaa(lp255
(lp256
I15
aI4
aa(lp257
I25
aa(lp258
g59
aVhilarious
p259
ag28
aaa(lp260
(lp261
I25
aI15
aa(lp262
I35
aa(lp263
Vtraditional
p264
ag134
ag28
aaa(lp265
(lp266
I8
aI31
aa(lp267
I43
aa(lp268
g88
ag14
ag29
aaa(lp269
(lp270
I5
aI1
aa(lp271
I9
aa(lp272
Vsafe
p273
ag204
ag185
aaa(lp274
(lp275
I3
aI15
aa(lp276
I1
aa(lp277
Vbusy
p278
ag245
aVcomfortable
p279
aaa(lp280
(lp281
I33
aI26
aa(lp282
I7
aa(lp283
g163
ag103
ag162
aaa(lp284
(lp285
I37
aI6
aa(lp286
I35
aa(lp287
g246
ag171
ag218
aaa(lp288
(lp289
I37
aI7
aa(lp290
I24
aa(lp291
g46
ag171
ag103
aaa(lp292
(lp293
I47
aI24
aa(lp294
I21
aa(lp295
g73
ag279
ag41
aaa(lp296
(lp297
I20
aI43
aa(lp298
I37
aa(lp299
Vdead
p300
ag23
aVfancy
p301
aaa(lp302
(lp303
I21
aI39
aa(lp304
I24
aa(lp305
g46
ag103
ag23
aaa(lp306
(lp307
I1
aI6
aa(lp308
I37
aa(lp309
g23
aVdirty
p310
ag73
aaa(lp311
(lp312
I1
aI38
aa(lp313
I37
aa(lp314
g169
ag279
ag47
aaa(lp315
(lp316
I38
aI39
aa(lp317
I28
aa(lp318
g47
aVinsane
p319
ag57
aaa(lp320
(lp321
I11
aI12
aa(lp322
I7
aa(lp323
g88
ag29
ag47
aaa(lp324
(lp325
I7
aI31
aa(lp326
I39
aa(lp327
g14
ag153
ag48
aaa(lp328
(lp329
I0
aI39
aa(lp330
I8
aa(lp331
g29
ag59
ag23
aaa(lp332
(lp333
I39
aI31
aa(lp334
I1
aa(lp335
g169
ag47
ag88
aaa(lp336
(lp337
I37
aI8
aa(lp338
I44
aa(lp339
Vfaithful
p340
ag73
ag29
aaa(lp341
(lp342
I12
aI37
aa(lp343
I14
aa(lp344
g41
ag185
aVlovely
p345
aaa(lp346
(lp347
I7
aI20
aa(lp348
I47
aa(lp349
g103
ag195
ag23
aaa(lp350
(lp351
I37
aI20
aa(lp352
I31
aa(lp353
g16
ag35
ag23
aaa(lp354
(lp355
I47
aI12
aa(lp356
I5
aa(lp357
g310
ag185
ag273
aaa(lp358
(lp359
I25
aI23
aa(lp360
I10
aa(lp361
Vdark
p362
ag319
ag97
aaa(lp363
(lp364
I31
aI12
aa(lp365
I24
aa(lp366
g129
ag59
ag14
aaa(lp367
(lp368
I43
aI20
aa(lp369
I7
aa(lp370
g103
ag162
ag102
aaa(lp371
(lp372
I49
aI7
aa(lp373
I33
aa(lp374
g162
aVjealous
p375
ag103
aaa(lp376
(lp377
I45
aI25
aa(lp378
I31
aa(lp379
Vquiet
p380
ag14
ag73
aaa(lp381
(lp382
I24
aI1
aa(lp383
I15
aa(lp384
g22
ag279
aVcrazy
p385
aaa(lp386
(lp387
I47
aI33
aa(lp388
I14
aa(lp389
g14
ag124
ag103
aaa(lp390
(lp391
I1
aI0
aa(lp392
I31
aa(lp393
g97
ag88
ag47
aaa(lp394
(lp395
I3
aI1
aa(lp396
I14
aa(lp397
g9
ag310
ag46
aaa(lp398
(lp399
I6
aI47
aa(lp400
I3
aa(lp401
g171
aVsmooth
p402
ag162
aaa(lp403
(lp404
I24
aI20
aa(lp405
I33
aa(lp406
g23
ag103
ag88
aaa(lp407
(lp408
I20
aI4
aa(lp409
I3
aa(lp410
g23
ag259
ag59
aaa(lp411
(lp412
I21
aI11
aa(lp413
I34
aa(lp414
g59
ag73
ag88
aaa(lp415
(lp416
I20
aI29
aa(lp417
I5
aa(lp418
g204
ag259
ag68
aaa(lp419
(lp420
I6
aI7
aa(lp421
I20
aa(lp422
g103
ag23
ag162
aaa(lp423
(lp424
I31
aI1
aa(lp425
I44
aa(lp426
g46
ag15
ag74
aaa(lp427
(lp428
I15
aI44
aa(lp429
I6
aa(lp430
Vtough
p431
ag163
ag164
aaa(lp432
(lp433
I32
aI24
aa(lp434
I2
aa(lp435
g22
ag143
aVfavorite
p436
aaa(lp437
(lp438
I45
aI25
aa(lp439
I32
aa(lp440
g41
ag164
ag21
aaa(lp441
(lp442
I31
aI4
aa(lp443
I20
aa(lp444
g97
ag15
ag23
aaa(lp445
(lp446
I23
aI21
aa(lp447
I31
aa(lp448
g46
ag21
ag57
aaa(lp449
(lp450
I49
aI45
aa(lp451
I24
aa(lp452
g68
ag21
ag103
aaa(lp453
(lp454
I31
aI19
aa(lp455
I48
aa(lp456
g48
ag259
ag14
aaa(lp457
(lp458
I32
aI23
aa(lp459
I36
aa(lp460
g58
aVfriendly
p461
aVpeaceful
p462
aaa(lp463
(lp464
I15
aI31
aa(lp465
I30
aa(lp466
g21
ag15
ag58
aaa(lp467
(lp468
I7
aI15
aa(lp469
I27
aa(lp470
g163
ag385
ag16
aaa(lp471
(lp472
I31
aI3
aa(lp473
I7
aa(lp474
g14
ag9
ag164
aaa(lp475
(lp476
I1
aI12
aa(lp477
I27
aa(lp478
g246
ag245
ag169
aaa(lp479
(lp480
I20
aI5
aa(lp481
I29
aa(lp482
g218
ag204
ag176
aaa(lp483
(lp484
I32
aI5
aa(lp485
I23
aa(lp486
g34
ag176
ag58
aaa(lp487
(lp488
I0
aI31
aa(lp489
I29
aa(lp490
g169
ag88
ag97
aaa(lp491
(lp492
I37
aI42
aa(lp493
I6
aa(lp494
g345
aVholy
p495
ag259
aaa(lp496
(lp497
I7
aI29
aa(lp498
I8
aa(lp499
g103
ag259
ag15
aaa(lp500
(lp501
I8
aI7
aa(lp502
I39
aa(lp503
g300
ag68
ag29
aaa(lp504
(lp505
I17
aI38
aa(lp506
I46
aa(lp507
Vrich
p508
aVpretty
p509
ag88
aaa(lp510
(lp511
I47
aI1
aa(lp512
I37
aa(lp513
g153
ag73
ag15
aaa(lp514
(lp515
I42
aI15
aa(lp516
I47
aa(lp517
g340
ag279
ag57
aaa(lp518
(lp519
I38
aI14
aa(lp520
I37
aa(lp521
g7
ag97
ag345
aaa(lp522
(lp523
I37
aI12
aa(lp524
I1
aa(lp525
g385
ag23
ag245
aaa(lp526
(lp527
I1
aI24
aa(lp528
I38
aa(lp529
g57
ag74
ag41
aaa(lp530
(lp531
I45
aI24
aa(lp532
I29
aa(lp533
g15
ag148
ag73
aaa(lp534
(lp535
I6
aI3
aa(lp536
I9
aa(lp537
g15
ag162
ag171
aaa(lp538
(lp539
I15
aI7
aa(lp540
I5
aa(lp541
g164
ag29
aVevil
p542
aaa(lp543
(lp544
I25
aI7
aa(lp545
I28
aa(lp546
g153
ag103
ag319
aaa(lp547
(lp548
I7
aI15
aa(lp549
I21
aa(lp550
g103
ag385
ag195
aaa(lp551
(lp552
I3
aI18
aa(lp553
I5
aa(lp554
g310
aVbad
p555
ag41
aaa(lp556
(lp557
I38
aI31
aa(lp558
I15
aa(lp559
g48
ag163
aVsweet
p560
aaas.