(dp0
S'scenarios'
p1
(lp2
(lp3
(lp4
I3
aI6
aa(lp5
I14
aa(lp6
Vtired
p7
aVgorgeous
p8
aVhealthy
p9
aaa(lp10
(lp11
I7
aI31
aa(lp12
I27
aa(lp13
Vcute
p14
aVadorable
p15
aVoutdoor
p16
aaa(lp17
(lp18
I24
aI1
aa(lp19
I49
aa(lp20
Vsuccessful
p21
aVhungry
p22
aVdeadly
p23
aaa(lp24
(lp25
I3
aI42
aa(lp26
I31
aa(lp27
g15
aVdumb
p28
aVnasty
p29
aaa(lp30
(lp31
I47
aI44
aa(lp32
I31
aa(lp33
g15
ag14
aVempty
p34
aaa(lp35
(lp36
I21
aI16
aa(lp37
I34
aa(lp38
Vtalented
p39
aVillegal
p40
aVstunning
p41
aaa(lp42
(lp43
I31
aI48
aa(lp44
I26
aa(lp45
g39
ag23
ag34
aaa(lp46
(lp47
I6
aI24
aa(lp48
I31
aa(lp49
Vdifficult
p50
aVexcellent
p51
ag15
aaa(lp52
(lp53
I31
aI43
aa(lp54
I16
aa(lp55
Vrough
p56
ag14
ag15
aaa(lp57
(lp58
I35
aI31
aa(lp59
I48
aa(lp60
Vshy
p61
aVsleepy
p62
aVhurt
p63
aaa(lp64
(lp65
I32
aI5
aa(lp66
I31
aa(lp67
Vconfused
p68
ag14
ag56
aaa(lp69
(lp70
I24
aI4
aa(lp71
I32
aa(lp72
g22
ag51
ag16
aaa(lp73
(lp74
I15
aI28
aa(lp75
I47
aa(lp76
Vwicked
p77
aVclever
p78
aVclean
p79
aaa(lp80
(lp81
I6
aI40
aa(lp82
I9
aa(lp83
Vcreepy
p84
aVdying
p85
aVfat
p86
aaa(lp87
(lp88
I42
aI38
aa(lp89
I24
aa(lp90
Vdry
p91
ag21
aVviolent
p92
aaa(lp93
(lp94
I24
aI21
aa(lp95
I48
aa(lp96
Vlazy
p97
ag41
aVexcited
p98
aaa(lp99
(lp100
I21
aI31
aa(lp101
I23
aa(lp102
g15
aVangry
p103
aVextreme
p104
aaa(lp105
(lp106
I7
aI8
aa(lp107
I24
aa(lp108
Vproud
p109
ag97
aVattractive
p110
aaa(lp111
(lp112
I21
aI20
aa(lp113
I48
aa(lp114
g62
ag23
aVwet
p115
aaa(lp116
(lp117
I39
aI31
aa(lp118
I21
aa(lp119
g14
ag34
ag115
aaa(lp120
(lp121
I1
aI29
aa(lp122
I31
aa(lp123
g56
ag98
ag62
aaa(lp124
(lp125
I31
aI39
aa(lp126
I11
aa(lp127
g39
aVfresh
p128
ag56
aaa(lp129
(lp130
I42
aI31
aa(lp131
I23
aa(lp132
g97
aVbitter
p133
ag92
aaa(lp134
(lp135
I15
aI4
aa(lp136
I25
aa(lp137
g39
aVhilarious
p138
aVexpensive
p139
aaa(lp140
(lp141
I8
aI31
aa(lp142
I43
aa(lp143
g98
ag14
ag110
aaa(lp144
(lp145
I5
aI1
aa(lp146
I9
aa(lp147
Vsafe
p148
aVwarm
p149
ag103
aaa(lp150
(lp151
I3
aI15
aa(lp152
I1
aa(lp153
Vbusy
p154
aVugly
p155
aVcomfortable
p156
aaa(lp157
(lp158
I37
aI6
aa(lp159
I35
aa(lp160
Vdangerous
p161
ag86
aVfunny
p162
aaa(lp163
(lp164
I37
aI7
aa(lp165
I24
aa(lp166
g97
ag86
ag51
aaa(lp167
(lp168
I47
aI24
aa(lp169
I21
aa(lp170
g40
ag156
ag29
aaa(lp171
(lp172
I21
aI39
aa(lp173
I24
aa(lp174
g97
ag51
ag23
aaa(lp175
(lp176
I38
aI39
aa(lp177
I28
aa(lp178
g34
aVinsane
p179
ag56
aaa(lp180
(lp181
I11
aI12
aa(lp182
I7
aa(lp183
g98
ag110
ag34
aaa(lp184
(lp185
I0
aI39
aa(lp186
I8
aa(lp187
g110
ag39
ag23
aaa(lp188
(lp189
I37
aI8
aa(lp190
I44
aa(lp191
Vfaithful
p192
ag40
ag110
aaa(lp193
(lp194
I7
aI20
aa(lp195
I47
aa(lp196
g51
ag115
ag23
aaa(lp197
(lp198
I37
aI20
aa(lp199
I31
aa(lp200
g16
ag61
ag23
aaa(lp201
(lp202
I31
aI12
aa(lp203
I24
aa(lp204
Vweak
p205
ag39
ag14
aaa(lp206
(lp207
I43
aI20
aa(lp208
I7
aa(lp209
g51
ag77
ag50
aaa(lp210
(lp211
I24
aI1
aa(lp212
I15
aa(lp213
g22
ag156
aVcrazy
p214
aaa(lp215
(lp216
I47
aI33
aa(lp217
I14
aa(lp218
g14
ag63
ag51
aaa(lp219
(lp220
I3
aI1
aa(lp221
I14
aa(lp222
g9
aVdirty
p223
ag97
aaa(lp224
(lp225
I24
aI20
aa(lp226
I33
aa(lp227
g23
ag51
ag98
aaa(lp228
(lp229
I20
aI4
aa(lp230
I3
aa(lp231
g23
ag138
ag39
aaa(lp232
(lp233
I21
aI11
aa(lp234
I34
aa(lp235
g39
ag40
ag98
aaa(lp236
(lp237
I20
aI29
aa(lp238
I5
aa(lp239
g149
ag138
aVsexy
p240
aaa(lp241
(lp242
I6
aI7
aa(lp243
I20
aa(lp244
g51
ag23
ag77
aaa(lp245
(lp246
I15
aI44
aa(lp247
I6
aa(lp248
Vtough
p249
ag78
ag79
aaa(lp250
(lp251
I31
aI4
aa(lp252
I20
aa(lp253
g104
ag15
ag23
aaa(lp254
(lp255
I49
aI45
aa(lp256
I24
aa(lp257
g240
ag21
ag51
aaa(lp258
(lp259
I31
aI19
aa(lp260
I48
aa(lp261
g62
ag138
ag14
aaa(lp262
(lp263
I32
aI23
aa(lp264
I36
aa(lp265
g92
aVfriendly
p266
aVpeaceful
p267
aaa(lp268
(lp269
I15
aI31
aa(lp270
I30
aa(lp271
g21
ag15
ag92
aaa(lp272
(lp273
I20
aI5
aa(lp274
I29
aa(lp275
g162
ag149
ag91
aaa(lp276
(lp277
I0
aI31
aa(lp278
I29
aa(lp279
g84
ag98
ag104
aaa(lp280
(lp281
I7
aI29
aa(lp282
I8
aa(lp283
g51
ag138
ag15
aaa(lp284
(lp285
I42
aI15
aa(lp286
I47
aa(lp287
g192
ag156
ag56
aaa(lp288
(lp289
I15
aI7
aa(lp290
I5
aa(lp291
g79
ag110
aVevil
p292
aaa(lp293
(lp294
I25
aI7
aa(lp295
I28
aa(lp296
Vclear
p297
ag51
ag179
aaa(lp298
(lp299
I7
aI15
aa(lp300
I21
aa(lp301
g51
ag214
ag115
aaas.