(dp0
S'scenarios'
p1
(lp2
(lp3
(lp4
I6
aI14
aa(lp5
I3
aa(lp6
Vtired
p7
aVgorgeous
p8
aVhealthy
p9
aaa(lp10
(lp11
I31
aI27
aa(lp12
I7
aa(lp13
Vcute
p14
aVadorable
p15
aVoutdoor
p16
aaa(lp17
(lp18
I1
aI49
aa(lp19
I24
aa(lp20
Vsuccessful
p21
aVhungry
p22
aVdeadly
p23
aaa(lp24
(lp25
I15
aI35
aa(lp26
I25
aa(lp27
Vexpensive
p28
aVattractive
p29
ag14
aaa(lp30
(lp31
I35
aI31
aa(lp32
I29
aa(lp33
g15
aVchristian
p34
aVshy
p35
aaa(lp36
(lp37
I42
aI31
aa(lp38
I3
aa(lp39
g15
aVdumb
p40
aVnasty
p41
aaa(lp42
(lp43
I39
aI31
aa(lp44
I25
aa(lp45
Vlazy
p46
aVempty
p47
aVsleepy
p48
aaa(lp49
(lp50
I44
aI31
aa(lp51
I47
aa(lp52
g15
ag14
ag47
aaa(lp53
(lp54
I23
aI31
aa(lp55
I21
aa(lp56
Vrough
p57
aVviolent
p58
aVtalented
p59
aaa(lp60
(lp61
I31
aI24
aa(lp62
I48
aa(lp63
g48
ag47
ag14
aaa(lp64
(lp65
I49
aI29
aa(lp66
I31
aa(lp67
g35
ag48
aVsexy
p68
aaa(lp69
(lp70
I16
aI34
aa(lp71
I21
aa(lp72
g59
aVillegal
p73
aVstunning
p74
aaa(lp75
(lp76
I24
aI21
aa(lp77
I42
aa(lp78
g46
ag73
ag21
aaa(lp79
(lp80
I24
aI38
aa(lp81
I30
aa(lp82
g21
ag22
aVpowerful
p83
aaa(lp84
(lp85
I48
aI36
aa(lp86
I31
aa(lp87
g48
aVexcited
p88
ag15
aaa(lp89
(lp90
I48
aI26
aa(lp91
I31
aa(lp92
g59
ag23
ag47
aaa(lp93
(lp94
I39
aI31
aa(lp95
I33
aa(lp96
g46
ag58
aVextreme
p97
aaa(lp98
(lp99
I24
aI31
aa(lp100
I6
aa(lp101
Vdifficult
p102
aVexcellent
p103
ag15
aaa(lp104
(lp105
I24
aI29
aa(lp106
I32
aa(lp107
g21
ag103
ag41
aaa(lp108
(lp109
I2
aI29
aa(lp110
I31
aa(lp111
g35
ag46
ag15
aaa(lp112
(lp113
I43
aI16
aa(lp114
I31
aa(lp115
g57
ag14
ag15
aaa(lp116
(lp117
I26
aI1
aa(lp118
I31
aa(lp119
g59
ag48
ag57
aaa(lp120
(lp121
I31
aI48
aa(lp122
I35
aa(lp123
g35
ag48
aVhurt
p124
aaa(lp125
(lp126
I12
aI31
aa(lp127
I13
aa(lp128
g88
aVweak
p129
ag14
aaa(lp130
(lp131
I5
aI31
aa(lp132
I32
aa(lp133
Vconfused
p134
ag14
ag57
aaa(lp135
(lp136
I4
aI32
aa(lp137
I24
aa(lp138
g22
ag103
ag16
aaa(lp139
(lp140
I35
aI30
aa(lp141
I39
aa(lp142
Vfresh
p143
ag41
ag97
aaa(lp144
(lp145
I24
aI47
aa(lp146
I29
aa(lp147
Vcold
p148
ag46
ag97
aaa(lp149
(lp150
I31
aI4
aa(lp151
I46
aa(lp152
Vclear
p153
ag59
ag46
aaa(lp154
(lp155
I28
aI34
aa(lp156
I7
aa(lp157
g35
ag29
ag83
aaa(lp158
(lp159
I28
aI47
aa(lp160
I15
aa(lp161
Vwicked
p162
aVclever
p163
aVclean
p164
aaa(lp165
(lp166
I40
aI9
aa(lp167
I6
aa(lp168
Vcreepy
p169
aVdying
p170
aVfat
p171
aaa(lp172
(lp173
I38
aI24
aa(lp174
I42
aa(lp175
Vdry
p176
ag21
ag58
aaa(lp177
(lp178
I21
aI48
aa(lp179
I24
aa(lp180
g46
ag74
ag88
aaa(lp181
(lp182
I31
aI23
aa(lp183
I21
aa(lp184
g15
aVangry
p185
ag97
aaa(lp186
(lp187
I8
aI24
aa(lp188
I7
aa(lp189
Vproud
p190
ag46
ag29
aaa(lp191
(lp192
I20
aI48
aa(lp193
I21
aa(lp194
g48
ag23
aVwet
p195
aaa(lp196
(lp197
I3
aI37
aa(lp198
I21
aa(lp199
g40
ag35
ag73
aaa(lp200
(lp201
I15
aI49
aa(lp202
I46
aa(lp203
g29
aVwarm
p204
ag164
aaa(lp205
(lp206
I31
aI21
aa(lp207
I39
aa(lp208
g14
ag47
ag195
aaa(lp209
(lp210
I29
aI31
aa(lp211
I1
aa(lp212
g57
ag88
ag48
aaa(lp213
(lp214
I5
aI29
aa(lp215
I42
aa(lp216
Vsick
p217
ag41
aVfunny
p218
aaa(lp219
(lp220
I38
aI40
aa(lp221
I24
aa(lp222
g170
ag103
ag190
aaa(lp223
(lp224
I34
aI16
aa(lp225
I13
aa(lp226
g35
ag73
ag68
aaa(lp227
(lp228
I39
aI11
aa(lp229
I31
aa(lp230
g59
ag143
ag57
aaa(lp231
(lp232
I37
aI21
aa(lp233
I1
aa(lp234
g14
ag73
aVstrange
p235
aaa(lp236
(lp237
I31
aI23
aa(lp238
I42
aa(lp239
g46
aVbitter
p240
ag58
aaa(lp241
(lp242
I12
aI39
aa(lp243
I1
aa(lp244
Vugly
p245
aVdangerous
p246
ag47
aaa(lp247
(lp248
I2
aI6
aa(lp249
I24
aa(lp250
g22
ag218
ag171
aaa(lp251
(lp252
I31
aI19
aa(lp253
I39
aa(lp254
g195
ag15
ag73
aaa(lp255
(lp256
I4
aI25
aa(lp257
I15
aa(lp258
g59
aVhilarious
p259
ag28
aaa(lp260
(lp261
I15
aI35
aa(lp262
I25
aa(lp263
Vtraditional
p264
ag134
ag28
aaa(lp265
(lp266
I31
aI43
aa(lp267
I8
aa(lp268
g88
ag14
ag29
aaa(lp269
(lp270
I1
aI9
aa(lp271
I5
aa(lp272
Vsafe
p273
ag204
ag185
aaa(lp274
(lp275
I15
aI1
aa(lp276
I3
aa(lp277
Vbusy
p278
ag245
aVcomfortable
p279
aaa(lp280
(lp281
I26
aI7
aa(lp282
I33
aa(lp283
g163
ag103
ag162
aaa(lp284
(lp285
I6
aI35
aa(lp286
I37
aa(lp287
g246
ag171
ag218
aaa(lp288
(lp289
I7
aI24
aa(lp290
I37
aa(lp291
g46
ag171
ag103
aaa(lp292
(lp293
I24
aI21
aa(lp294
I47
aa(lp295
g73
ag279
ag41
aaa(lp296
(lp297
I43
aI37
aa(lp298
I20
aa(lp299
Vdead
p300
ag23
aVfancy
p301
aaa(lp302
(lp303
I39
aI24
aa(lp304
I21
aa(lp305
g46
ag103
ag23
aaa(lp306
(lp307
I6
aI37
aa(lp308
I1
aa(lp309
g23
aVdirty
p310
ag73
aaa(lp311
(lp312
I38
aI37
aa(lp313
I1
aa(lp314
g169
ag279
ag47
aaa(lp315
(lp316
I39
aI28
aa(lp317
I38
aa(lp318
g47
aVinsane
p319
ag57
aaa(lp320
(lp321
I12
aI7
aa(lp322
I11
aa(lp323
g88
ag29
ag47
aaa(lp324
(lp325
I31
aI39
aa(lp326
I7
aa(lp327
g14
ag153
ag48
aaa(lp328
(lp329
I39
aI8
aa(lp330
I0
aa(lp331
g29
ag59
ag23
aaa(lp332
(lp333
I31
aI1
aa(lp334
I39
aa(lp335
g169
ag47
ag88
aaa(lp336
(lp337
I8
aI44
aa(lp338
I37
aa(lp339
Vfaithful
p340
ag73
ag29
aaa(lp341
(lp342
I37
aI14
aa(lp343
I12
aa(lp344
g41
ag185
aVlovely
p345
aaa(lp346
(lp347
I20
aI47
aa(lp348
I7
aa(lp349
g103
ag195
ag23
aaa(lp350
(lp351
I20
aI31
aa(lp352
I37
aa(lp353
g16
ag35
ag23
aaa(lp354
(lp355
I12
aI5
aa(lp356
I47
aa(lp357
g310
ag185
ag273
aaa(lp358
(lp359
I23
aI10
aa(lp360
I25
aa(lp361
Vdark
p362
ag319
ag97
aaa(lp363
(lp364
I12
aI24
aa(lp365
I31
aa(lp366
g129
ag59
ag14
aaa(lp367
(lp368
I20
aI7
aa(lp369
I43
aa(lp370
g103
ag162
ag102
aaa(lp371
(lp372
I7
aI33
aa(lp373
I49
aa(lp374
g162
aVjealous
p375
ag103
aaa(lp376
(lp377
I25
aI31
aa(lp378
I45
aa(lp379
Vquiet
p380
ag14
ag73
aaa(lp381
(lp382
I1
aI15
aa(lp383
I24
aa(lp384
g22
ag279
aVcrazy
p385
aaa(lp386
(lp387
I33
aI14
aa(lp388
I47
aa(lp389
g14
ag124
ag103
aaa(lp390
(lp391
I0
aI31
aa(lp392
I1
aa(lp393
g97
ag88
ag47
aaa(lp394
(lp395
I1
aI14
aa(lp396
I3
aa(lp397
g9
ag310
ag46
aaa(lp398
(lp399
I47
aI3
aa(lp400
I6
aa(lp401
g171
aVsmooth
p402
ag162
aaa(lp403
(lp404
I20
aI33
aa(lp405
I24
aa(lp406
g23
ag103
ag88
aaa(lp407
(lp408
I4
aI3
aa(lp409
I20
aa(lp410
g23
ag259
ag59
aaa(lp411
(lp412
I11
aI34
aa(lp413
I21
aa(lp414
g59
ag73
ag88
aaa(lp415
(lp416
I29
aI5
aa(lp417
I20
aa(lp418
g204
ag259
ag68
aaa(lp419
(lp420
I7
aI20
aa(lp421
I6
aa(lp422
g103
ag23
ag162
aaa(lp423
(lp424
I1
aI44
aa(lp425
I31
aa(lp426
g46
ag15
ag74
aaa(lp427
(lp428
I44
aI6
aa(lp429
I15
aa(lp430
Vtough
p431
ag163
ag164
aaa(lp432
(lp433
I24
aI2
aa(lp434
I32
aa(lp435
g22
ag143
aVfavorite
p436
aaa(lp437
(lp438
I25
aI32
aa(lp439
I45
aa(lp440
g41
ag164
ag21
aaa(lp441
(lp442
I4
aI20
aa(lp443
I31
aa(lp444
g97
ag15
ag23
aaa(lp445
(lp446
I21
aI31
aa(lp447
I23
aa(lp448
g46
ag21
ag57
aaa(lp449
(lp450
I45
aI24
aa(lp451
I49
aa(lp452
g68
ag21
ag103
aaa(lp453
(lp454
I19
aI48
aa(lp455
I31
aa(lp456
g48
ag259
ag14
aaa(lp457
(lp458
I23
aI36
aa(lp459
I32
aa(lp460
g58
aVfriendly
p461
aVpeaceful
p462
aaa(lp463
(lp464
I31
aI30
aa(lp465
I15
aa(lp466
g21
ag15
ag58
aaa(lp467
(lp468
I15
aI27
aa(lp469
I7
aa(lp470
g163
ag385
ag16
aaa(lp471
(lp472
I3
aI7
aa(lp473
I31
aa(lp474
g14
ag9
ag164
aaa(lp475
(lp476
I12
aI27
aa(lp477
I1
aa(lp478
g246
ag245
ag169
aaa(lp479
(lp480
I5
aI29
aa(lp481
I20
aa(lp482
g218
ag204
ag176
aaa(lp483
(lp484
I5
aI23
aa(lp485
I32
aa(lp486
g34
ag176
ag58
aaa(lp487
(lp488
I31
aI29
aa(lp489
I0
aa(lp490
g169
ag88
ag97
aaa(lp491
(lp492
I42
aI6
aa(lp493
I37
aa(lp494
g345
aVholy
p495
ag259
aaa(lp496
(lp497
I29
aI8
aa(lp498
I7
aa(lp499
g103
ag259
ag15
aaa(lp500
(lp501
I7
aI39
aa(lp502
I8
aa(lp503
g300
ag68
ag29
aaa(lp504
(lp505
I38
aI46
aa(lp506
I17
aa(lp507
Vrich
p508
aVpretty
p509
ag88
aaa(lp510
(lp511
I1
aI37
aa(lp512
I47
aa(lp513
g153
ag73
ag15
aaa(lp514
(lp515
I15
aI47
aa(lp516
I42
aa(lp517
g340
ag279
ag57
aaa(lp518
(lp519
I14
aI37
aa(lp520
I38
aa(lp521
g7
ag97
ag345
aaa(lp522
(lp523
I12
aI1
aa(lp524
I37
aa(lp525
g385
ag23
ag245
aaa(lp526
(lp527
I24
aI38
aa(lp528
I1
aa(lp529
g57
ag74
ag41
aaa(lp530
(lp531
I24
aI29
aa(lp532
I45
aa(lp533
g15
ag148
ag73
aaa(lp534
(lp535
I3
aI9
aa(lp536
I6
aa(lp537
g15
ag162
ag171
aaa(lp538
(lp539
I7
aI5
aa(lp540
I15
aa(lp541
g164
ag29
aVevil
p542
aaa(lp543
(lp544
I7
aI28
aa(lp545
I25
aa(lp546
g153
ag103
ag319
aaa(lp547
(lp548
I15
aI21
aa(lp549
I7
aa(lp550
g103
ag385
ag195
aaa(lp551
(lp552
I18
aI5
aa(lp553
I3
aa(lp554
g310
aVbad
p555
ag41
aaa(lp556
(lp557
I31
aI15
aa(lp558
I38
aa(lp559
g48
ag163
aVsweet
p560
aaas.