(dp0
S'scenarios'
p1
(lp2
(lp3
(lp4
I28
aI27
aa(lp5
I3
aa(lp6
Vcute
p7
aVadorable
p8
aVempty
p9
aaa(lp10
(lp11
I10
aI12
aa(lp12
I2
aa(lp13
Vclean
p14
aVtalented
p15
aVinnocent
p16
aaa(lp17
(lp18
I14
aI12
aa(lp19
I40
aa(lp20
Vangry
p21
aVdangerous
p22
aVfaithful
p23
aaa(lp24
(lp25
I27
aI7
aa(lp26
I32
aa(lp27
Vcomfortable
p28
aVclear
p29
aVstrong
p30
aaa(lp31
(lp32
I2
aI41
aa(lp33
I32
aa(lp34
Vextreme
p35
aVevil
p36
aVsafe
p37
aaa(lp38
(lp39
I48
aI32
aa(lp40
I37
aa(lp41
Vlonely
p42
aVbitter
p43
aVsuccessful
p44
aaa(lp45
(lp46
I27
aI10
aa(lp47
I1
aa(lp48
g35
ag37
aVweird
p49
aaa(lp50
(lp51
I37
aI28
aa(lp52
I6
aa(lp53
Vinsane
p54
ag23
aVlazy
p55
aaa(lp56
(lp57
I7
aI43
aa(lp58
I35
aa(lp59
Vfat
p60
aVjealous
p61
aVdark
p62
aaa(lp63
(lp64
I45
aI40
aa(lp65
I1
aa(lp66
Vdifficult
p67
aVclever
p68
ag49
aaa(lp69
(lp70
I45
aI19
aa(lp71
I37
aa(lp72
Vhealthy
p73
ag42
aVcreepy
p74
aaa(lp75
(lp76
I41
aI46
aa(lp77
I13
aa(lp78
g8
aVbright
p79
ag49
aaa(lp80
(lp81
I38
aI22
aa(lp82
I19
aa(lp83
Vhurt
p84
aVyoung
p85
aVstunning
p86
aaa(lp87
(lp88
I9
aI6
aa(lp89
I33
aa(lp90
Vdumb
p91
ag23
aVfunny
p92
aaa(lp93
(lp94
I7
aI26
aa(lp95
I18
aa(lp96
Vnasty
p97
ag62
ag74
aaa(lp98
(lp99
I25
aI19
aa(lp100
I11
aa(lp101
g73
aVsmooth
p102
aVfancy
p103
aaa(lp104
(lp105
I28
aI12
aa(lp106
I15
aa(lp107
g54
ag42
ag49
aaa(lp108
(lp109
I47
aI29
aa(lp110
I37
aa(lp111
Vdying
p112
aVviolent
p113
aVsleepy
p114
aaa(lp115
(lp116
I17
aI47
aa(lp117
I35
aa(lp118
g29
ag73
ag35
aaa(lp119
(lp120
I19
aI38
aa(lp121
I7
aa(lp122
g36
aVdead
p123
aVbeautiful
p124
aaa(lp125
(lp126
I7
aI25
aa(lp127
I0
aa(lp128
g60
ag92
aVsexy
p129
aaas.